(lp0
(icore
City
p1
(dp2
S'graphProperties'
p3
(dp4
S'numNodes'
p5
I14662
sS'numEdges'
p6
I23185
sS'AverageDegree'
p7
F3.162597190015005
sS'numConnectedComponents'
p8
I69
sS'lenGiantComponent'
p9
I14453
sS'TotalDegree'
p10
F46370.0
ssS'name'
p11
S'gdansk'
p12
sS'rawInformation'
p13
(dp14
S'gini'
p15
cnumpy.core.multiarray
scalar
p16
(cnumpy
dtype
p17
(S'f8'
p18
I0
I1
tp19
Rp20
(I3
S'<'
p21
NNNI-1
I-1
I0
tp22
bS'\xbf\xd5M\x96\x91P\xef?'
p23
tp24
Rp25
sS'rawEntropy'
p26
g16
(g20
S'\x87\x8c\x85\xa2\xae9L@'
p27
tp28
Rp29
sS'opStatus'
p30
I01
sS'entropy'
p31
g16
(g20
S' \xcf\xb4\xe48?\xb1?'
p32
tp33
Rp34
sS'stddev'
p35
g16
(g20
S'\xeb\xaf\x13\xbc\x92\xd5\x80?'
p36
tp37
Rp38
sS'freeman_centrality'
p39
g16
(g20
S'\xef\x01\xbd\xe3=\xb8p?'
p40
tp41
Rp42
sS'cv'
p43
g16
(g20
S'L\x8b\xb2\xa11\xc4\xb5?'
p44
tp45
Rp46
sS'mean'
p47
g16
(g20
S'\x01\r\x04\xd3\xbf\xbf\xb8?'
p48
tp49
Rp50
ssba(icore
City
p51
(dp52
g3
(dp53
g5
I88860
sg6
I156510
sg7
F3.5226198514517217
sg8
I132
sg9
I60997
sg10
F313020.0
ssg11
S'new-york'
p54
sg13
(dp55
g15
g16
(g20
S'zh\x15x\xa64\xef?'
p56
tp57
Rp58
sg26
g16
(g20
S'\xb8\xae\xd78\x00Eh@'
p59
tp60
Rp61
sg30
I01
sg31
g16
(g20
S'N\x98"k\x18I\xb4?'
p62
tp63
Rp64
sg35
g16
(g20
S'9+!7sVk?'
p65
tp66
Rp67
sg39
g16
(g20
S'\xb3\xbf\x96\xee\xed\x01a?'
p68
tp69
Rp70
sg43
g16
(g20
S'\xb5\x9cj\x11\xa7\xbc\xa0?'
p71
tp72
Rp73
sg47
g16
(g20
S'g\x1a\x082O"\xba?'
p74
tp75
Rp76
ssba(icore
City
p77
(dp78
g3
(dp79
g5
I50067
sg6
I84476
sg7
F3.3745181456847826
sg8
I119
sg9
I49531
sg10
F168952.0
ssg11
S'tampa'
p80
sg13
(dp81
g15
g16
(g20
S"\xc0\xc8?'\xd8_\xef?"
p82
tp83
Rp84
sg26
g16
(g20
S'\x83&OK\xc3)^@'
p85
tp86
Rp87
sg30
I01
sg31
g16
(g20
S'\x19\x8c$\xfd#\xaf\xb1?'
p88
tp89
Rp90
sg35
g16
(g20
S",\xac\x9b\\'9r?"
p91
tp92
Rp93
sg39
g16
(g20
S'\xcd4\xea\x92)[f?'
p94
tp95
Rp96
sg43
g16
(g20
S'%\xc7\x92e\xb2\n\xa8?'
p97
tp98
Rp99
sg47
g16
(g20
S'\xfe\x8bl\xf0dA\xb8?'
p100
tp101
Rp102
ssba(icore
City
p103
(dp104
g3
(dp105
g5
I268315
sg6
I411431
sg7
F3.066775990906211
sg8
I540
sg9
I266281
sg10
F822862.0
ssg11
S'london'
p106
sg13
(dp107
g15
g16
(g20
S'\xaa\x80\x12\x97=\xf8\xef?'
p108
tp109
Rp110
sg26
g16
(g20
S'km(C\xa6\x85L@'
p111
tp112
Rp113
sg30
I01
sg31
g16
(g20
S'\xdb+L\xddW\x03\x89?'
p114
tp115
Rp116
sg35
g16
(g20
S'\x0c\xdc\x0e\xe8\xfa\x9e_?'
p117
tp118
Rp119
sg39
g16
(g20
S'\xd8\xdd\xb8)\xbf\x0c=?'
p120
tp121
Rp122
sg43
g16
(g20
S'U\xa2\xb4\x12\xca\xe0\xb4?'
p123
tp124
Rp125
sg47
g16
(g20
S'n\xfeI\x8c\x9e;\x98?'
p126
tp127
Rp128
ssba(icore
City
p129
(dp130
g3
(dp131
g5
I16250
sg6
I26759
sg7
F3.2934153846153844
sg8
I32
sg9
I15984
sg10
F53518.0
ssg11
S'santa-barbara'
p132
sg13
(dp133
g15
g16
(g20
S'Y\xae\x98\xf7\xf3o\xee?'
p134
tp135
Rp136
sg26
g16
(g20
S'3\xea\x8b_\xe3`Z@'
p137
tp138
Rp139
sg30
I01
sg31
g16
(g20
S'\x86\xe0H\xaf\xe7K\xbe?'
p140
tp141
Rp142
sg35
g16
(g20
S'\xfe\x11\xbc\xbb\xa7\xc5\x7f?'
p143
tp144
Rp145
sg39
g16
(g20
S'\x01pf;\xe1y\x80?'
p146
tp147
Rp148
sg43
g16
(g20
S'\xc97\xf7Y\x10\x9f\xaa?'
p149
tp150
Rp151
sg47
g16
(g20
S'\x817Ps\x80\x18\xc3?'
p152
tp153
Rp154
ssba(icore
City
p155
(dp156
g3
(dp157
g5
I26011
sg6
I39129
sg7
F3.0086501864595747
sg8
I63
sg9
I25739
sg10
F78258.0
ssg11
S'indianapolis'
p158
sg13
(dp159
g15
g16
(g20
S'\x01\xfd\x19f"\x86\xef?'
p160
tp161
Rp162
sg26
g16
(g20
S'\x99\xe6V\xcd\xeb\xb2P@'
p163
tp164
Rp165
sg30
I01
sg31
g16
(g20
S'\xcc\xb7\x1b\xfeh\xea\xac?'
p166
tp167
Rp168
sg35
g16
(g20
S'"j&c\xe7My?'
p169
tp170
Rp171
sg39
g16
(g20
S'X\x9c\xdb)\xb6\xf9l?'
p172
tp173
Rp174
sg43
g16
(g20
S'\x9e\xe1?\xd4\xb9\x88\xb2?'
p175
tp176
Rp177
sg47
g16
(g20
S'\xf8`\xb9@5\xd8\xb5?'
p178
tp179
Rp180
ssba(icore
City
p181
(dp182
g3
(dp183
g5
I75055
sg6
I126805
sg7
F3.378988741589501
sg8
I87
sg9
I70037
sg10
F253610.0
ssg11
S'detroit'
p184
sg13
(dp185
g15
g16
(g20
S'@\xd1<N\x0f\xf7\xee?'
p186
tp187
Rp188
sg26
g16
(g20
S'\x8a=YY\xb4\xfdf@'
p189
tp190
Rp191
sg30
I01
sg31
g16
(g20
S'\x08\xb7\xf4\xc4`9\xb5?'
p192
tp193
Rp194
sg35
g16
(g20
S'\xc1i\x9b\xb1\x8d\xbdm?'
p195
tp196
Rp197
sg39
g16
(g20
S'Z\xb1\x0b\xc5\n_r?'
p198
tp199
Rp200
sg43
g16
(g20
S'J%\xfc\x93\xec\xe7\xa1?'
p201
tp202
Rp203
sg47
g16
(g20
S'F\xb8\xcc\xee%\x93\xba?'
p204
tp205
Rp206
ssba(icore
City
p207
(dp208
g3
(dp209
g5
I38610
sg6
I64271
sg7
F3.329241129241129
sg8
I200
sg9
I36380
sg10
F128542.0
ssg11
S'dubai-abu-dhabi'
p210
sg13
(dp211
g15
g16
(g20
S'` !n\x88D\xef?'
p212
tp213
Rp214
sg26
g16
(g20
S'a\x87J"86_@'
p215
tp216
Rp217
sg30
I01
sg31
g16
(g20
S'\xc39\x8c\xfa\xbaY\xb5?'
p218
tp219
Rp220
sg35
g16
(g20
S'\xb9\x84\xc5\x9c\xd6\xb5t?'
p221
tp222
Rp223
sg39
g16
(g20
S'\xa2 Z\xf1\xad-b?'
p224
tp225
Rp226
sg43
g16
(g20
S'\x8c\x8c \xb5\xca\xc6\xa6?'
p227
tp228
Rp229
sg47
g16
(g20
S'\x9d\xa4W\x1a\xd8\x18\xbd?'
p230
tp231
Rp232
ssba(icore
City
p233
(dp234
g3
(dp235
g5
I14015
sg6
I21767
sg7
F3.1062433107384946
sg8
I102
sg9
I6140
sg10
F43534.0
ssg11
S'melbourne'
p236
sg13
(dp237
g15
g16
(g20
S'\x8b\xcd\x149\x9c2\xef?'
p238
tp239
Rp240
sg26
g16
(g20
S'\xcf\xf5\xf9-eYQ@'
p241
tp242
Rp243
sg30
I01
sg31
g16
(g20
S'\n?\xd1\xe1\xe7\xc9\xb5?'
p244
tp245
Rp246
sg35
g16
(g20
S'\x9a\xdb5\xce\xc3,\x81?'
p247
tp248
Rp249
sg39
g16
(g20
S'\xe5d\xa5\x06\x04J\x90?'
p250
tp251
Rp252
sg43
g16
(g20
S'\xeb\xa6\xb1\xf9\xda\xea\xb1?'
p253
tp254
Rp255
sg47
g16
(g20
S'T[\x15\xe4\x80\xac\xbe?'
p256
tp257
Rp258
ssba(icore
City
p259
(dp260
g3
(dp261
g5
I45461
sg6
I71347
sg7
F3.1388222872352127
sg8
I222
sg9
I26741
sg10
F142694.0
ssg11
S'stockholm'
p262
sg13
(dp263
g15
g16
(g20
S'Y\xea\x08\xc4\x02\x93\xef?'
p264
tp265
Rp266
sg26
g16
(g20
S'\x14\xbe\xa1L+\xadT@'
p267
tp268
Rp269
sg30
I01
sg31
g16
(g20
S'\xe3\xb2\x10(\n\xac\xa9?'
p270
tp271
Rp272
sg35
g16
(g20
S'4\xb4B\xa15)s?'
p273
tp274
Rp275
sg39
g16
(g20
S'\x07}~\xfd#\x81]?'
p276
tp277
Rp278
sg43
g16
(g20
S'\xb0\\9\xb6\xde\xac\xb0?'
p279
tp280
Rp281
sg47
g16
(g20
S'\xfe^\xca\x15\x92b\xb2?'
p282
tp283
Rp284
ssba(icore
City
p285
(dp286
g3
(dp287
g5
I48998
sg6
I84244
sg7
F3.438670966161884
sg8
I91
sg9
I48631
sg10
F168488.0
ssg11
S'milan'
p288
sg13
(dp289
g15
g16
(g20
S'|\x8e\xc0k\xdc\xde\xef?'
p290
tp291
Rp292
sg26
g16
(g20
S'\x8a\xa9;\xf9\xad\xc5A@'
p293
tp294
Rp295
sg30
I01
sg31
g16
(g20
S'\xd9\x11\xf9\xf0u\x1b\x95?'
p296
tp297
Rp298
sg35
g16
(g20
S'\xe3\xddq\xee\xa1}r?'
p299
tp300
Rp301
sg39
g16
(g20
S'\x18#\xe2v\xac\xebT?'
p302
tp303
Rp304
sg43
g16
(g20
S'\\\xe2S\x86\xe8K\xbe?'
p305
tp306
Rp307
sg47
g16
(g20
S'\xe0"\x18h\xca\x87\xa3?'
p308
tp309
Rp310
ssba(icore
City
p311
(dp312
g3
(dp313
g5
I3078
sg6
I4086
sg7
F2.654970760233918
sg8
I37
sg9
I1515
sg10
F8172.0
ssg11
S'reno'
p314
sg13
(dp315
g15
g16
(g20
S'J\xc5\xc1?\t\xd4\xee?'
p316
tp317
Rp318
sg26
g16
(g20
S'\xe7Kh\xb6\xb2\tA@'
p319
tp320
Rp321
sg30
I01
sg31
g16
(g20
S'\xbc\xabGza#\xbb?'
p322
tp323
Rp324
sg35
g16
(g20
S'\x95\xe8o\xc3{>\x92?'
p325
tp326
Rp327
sg39
g16
(g20
S'\x18\t\x85V\xd5\xdd\x8e?'
p328
tp329
Rp330
sg43
g16
(g20
S'\x1e?\xbfi\xce\x19\xbe?'
p331
tp332
Rp333
sg47
g16
(g20
S'\x17\xe9GC*e\xc3?'
p334
tp335
Rp336
ssba(icore
City
p337
(dp338
g3
(dp339
g5
I36118
sg6
I60671
sg7
F3.359599091865552
sg8
I91
sg9
I35753
sg10
F121342.0
ssg11
S'prague'
p340
sg13
(dp341
g15
g16
(g20
S'o\x83 \xc6\xc6\xee\xef?'
p342
tp343
Rp344
sg26
g16
(g20
S'`\xdaJJm\xcb6@'
p345
tp346
Rp347
sg30
I01
sg31
g16
(g20
S'\xf4\xf9m]c9\x90?'
p348
tp349
Rp350
sg35
g16
(g20
S'F\x93\x05\x90I\x8au?'
p351
tp352
Rp353
sg39
g16
(g20
S'w\xf6@\xfd\x98\x87Q?'
p354
tp355
Rp356
sg43
g16
(g20
S'\xe1\x8f\xc3\xb8\x9f\xe5\xc3?'
p357
tp358
Rp359
sg47
g16
(g20
S'\x03\xff5\xfdER\xa1?'
p360
tp361
Rp362
ssba(icore
City
p363
(dp364
g3
(dp365
g5
I6254
sg6
I11418
sg7
F3.6514230892228974
sg8
I49
sg9
I6067
sg10
F22836.0
ssg11
S'taipei'
p366
sg13
(dp367
g15
g16
(g20
S'R\xb9d\xa8"\xd2\xee?'
p368
tp369
Rp370
sg26
g16
(g20
S'"f\x89\x9a=\x96L@'
p371
tp372
Rp373
sg30
I01
sg31
g16
(g20
S'po\x85\x88aZ\xbd?'
p374
tp375
Rp376
sg35
g16
(g20
S'\xc8\x87\xa3\xd7@\x91\x89?'
p377
tp378
Rp379
sg39
g16
(g20
S'\x7f\xfb\x04\x08s\xb8\x86?'
p380
tp381
Rp382
sg43
g16
(g20
S'%i\xdam\xb4\x17\xb4?'
p383
tp384
Rp385
sg47
g16
(g20
S'\xd9t_Q\x12\\\xc4?'
p386
tp387
Rp388
ssba(icore
City
p389
(dp390
g3
(dp391
g5
I840
sg6
I1153
sg7
F2.7452380952380953
sg8
I12
sg9
I420
sg10
F2306.0
ssg11
S'terre-haute'
p392
sg13
(dp393
g15
g16
(g20
S'\\\x8f\xa5\xcd\xeb\x92\xec?'
p394
tp395
Rp396
sg26
g16
(g20
S'\x00\x00\x00\x00\x00\x00\xf8\xff'
p397
tp398
Rp399
sg30
I01
sg31
g16
(g20
S'\x00\x00\x00\x00\x00\x00\xf8\xff'
p400
tp401
Rp402
sg35
g16
(g20
S'\xdaZM\x81\x8b\xe5\xa0?'
p403
tp404
Rp405
sg39
g16
(g20
S'`\xb0H\x9b?s\x9c?'
p406
tp407
Rp408
sg43
g16
(g20
S'c\x1b\x08\x9c\xe7\xf2\xbc?'
p409
tp410
Rp411
sg47
g16
(g20
S'\xa3K\x15\xfcr\xad\xd2?'
p412
tp413
Rp414
ssba(icore
City
p415
(dp416
g3
(dp417
g5
I81515
sg6
I138624
sg7
F3.40118996503711
sg8
I87
sg9
I80814
sg10
F277248.0
ssg11
S'miami'
p418
sg13
(dp419
g15
g16
(g20
S'l:\xf3`.\x03\xef?'
p420
tp421
Rp422
sg26
g16
(g20
S'\xc9\x8cCR\xb4`e@'
p423
tp424
Rp425
sg30
I01
sg31
g16
(g20
S'Z\xd6\xf55g\xcc\xb2?'
p426
tp427
Rp428
sg35
g16
(g20
S's\x1c\x17\\\xa8\x91l?'
p429
tp430
Rp431
sg39
g16
(g20
S'\x97q\x87\x82\x92\x10{?'
p432
tp433
Rp434
sg43
g16
(g20
S'\xe7(\xb2\xad\xcd?\xa3?'
p435
tp436
Rp437
sg47
g16
(g20
S'\t\xad\xf5s \xbf\xb7?'
p438
tp439
Rp440
ssba(icore
City
p441
(dp442
g3
(dp443
g5
I75994
sg6
I121097
sg7
F3.187014764323499
sg8
I108
sg9
I75609
sg10
F242194.0
ssg11
S'lyon'
p444
sg13
(dp445
g15
g16
(g20
S']\xbd/+F\xd7\xef?'
p446
tp447
Rp448
sg26
g16
(g20
S'\xaeD\x1a\x0f=\xd1P@'
p449
tp450
Rp451
sg30
I01
sg31
g16
(g20
S'\x14\x13\x840\xbf\xd2\x9e?'
p452
tp453
Rp454
sg35
g16
(g20
S'\xaf\x9co\x97\xd5\xadm?'
p455
tp456
Rp457
sg39
g16
(g20
S'}T\x9a\x0e\x81\xa7J?'
p458
tp459
Rp460
sg43
g16
(g20
S'Q\xcdcJ\xe0n\xb2?'
p461
tp462
Rp463
sg47
g16
(g20
S'\x03V\xe8\xf7\xf1\xc2\xa9?'
p464
tp465
Rp466
ssba(icore
City
p467
(dp468
g3
(dp469
g5
I97098
sg6
I168856
sg7
F3.478053100990752
sg8
I383
sg9
I94906
sg10
F337712.0
ssg11
S'chicago'
p470
sg13
(dp471
g15
g16
(g20
S'\xdao9?\x0f\xc4\xef?'
p472
tp473
Rp474
sg26
g16
(g20
S'5s\xdb\xcc\xe8"[@'
p475
tp476
Rp477
sg30
I01
sg31
g16
(g20
S'\x1d\xb2}N\xdd\x87\xa5?'
p478
tp479
Rp480
sg35
g16
(g20
S'\x05\xe5iy/<j?'
p481
tp482
Rp483
sg39
g16
(g20
S'\xd53.\x085\xee[?'
p484
tp485
Rp486
sg43
g16
(g20
S'E\x13\xa0\xd4aw\xa9?'
p487
tp488
Rp489
sg47
g16
(g20
S'\xa6i\x8f\xcc\xa5{\xb0?'
p490
tp491
Rp492
ssba(icore
City
p493
(dp494
g3
(dp495
g5
I1264
sg6
I1915
sg7
F3.0300632911392404
sg8
I26
sg9
I1103
sg10
F3830.0
ssg11
S'ankara'
p496
sg13
(dp497
g15
g16
(g20
S'\x88!QI\x15F\xef?'
p498
tp499
Rp500
sg26
g16
(g20
S'\x0e\xa0=\x07\x81\xc0-@'
p501
tp502
Rp503
sg30
I01
sg31
g16
(g20
S'\xfa\x99)\xd3\x9e\xca\xb4?'
p504
tp505
Rp506
sg35
g16
(g20
S'l\xaa$\x1c\xb3}\x9c?'
p507
tp508
Rp509
sg39
g16
(g20
S'Kp\xb3\x1e\x11P\x88?'
p510
tp511
Rp512
sg43
g16
(g20
S'\xfdd[2\x87J\xc8?'
p513
tp514
Rp515
sg47
g16
(g20
S'z\xd0o\xc50\xc4\xc2?'
p516
tp517
Rp518
ssba(icore
City
p519
(dp520
g3
(dp521
g5
I30172
sg6
I46731
sg7
F3.0976401962084052
sg8
I95
sg9
I29503
sg10
F93462.0
ssg11
S'sacramento'
p522
sg13
(dp523
g15
g16
(g20
S'P "Ol\x98\xee?'
p524
tp525
Rp526
sg26
g16
(g20
S'z\x93k<#N`@'
p527
tp528
Rp529
sg30
I01
sg31
g16
(g20
S'\xd0\xcbkZw\xd6\xb9?'
p530
tp531
Rp532
sg35
g16
(g20
S'\xf4b\xfaF5ew?'
p533
tp534
Rp535
sg39
g16
(g20
S'\x15V\xa8\xa2$\xeby?'
p536
tp537
Rp538
sg43
g16
(g20
S'$h\xab\x7f\x9f]\xa7?'
p539
tp540
Rp541
sg47
g16
(g20
S'\x919\xf6\xa81\x05\xc0?'
p542
tp543
Rp544
ssba(icore
City
p545
(dp546
g3
(dp547
g5
I60958
sg6
I117010
sg7
F3.839036713802946
sg8
I70
sg9
I60605
sg10
F234020.0
ssg11
S'amsterdam'
p548
sg13
(dp549
g15
g16
(g20
S'\x94\x86\xdb\x91\xe6\x80\xef?'
p550
tp551
Rp552
sg26
g16
(g20
S'w\xd55\x81@\xddZ@'
p553
tp554
Rp555
sg30
I01
sg31
g16
(g20
S'\xb3\x0c\xa0\x1c\xb0\t\xac?'
p556
tp557
Rp558
sg35
g16
(g20
S'&\x13\xe9\x9b\xad\x8ap?'
p559
tp560
Rp561
sg39
g16
(g20
S'K`\xbe\xeeypP?'
p562
tp563
Rp564
sg43
g16
(g20
S'\x18f\xb0|\xaf#\xab?'
p565
tp566
Rp567
sg47
g16
(g20
S'\\\xe4\xc8j\x19\x81\xb3?'
p568
tp569
Rp570
ssba(icore
City
p571
(dp572
g3
(dp573
g5
I50824
sg6
I77256
sg7
F3.0401385172359516
sg8
I30
sg9
I38830
sg10
F154512.0
ssg11
S'portland'
p574
sg13
(dp575
g15
g16
(g20
S'6\xf5\x81\x98\xce\xa0\xef?'
p576
tp577
Rp578
sg26
g16
(g20
S'\xb5\xa2\x1f\xfel\x83S@'
p579
tp580
Rp581
sg30
I01
sg31
g16
(g20
S'c\x86\x13\xe3\xa1\xad\xa6?'
p582
tp583
Rp584
sg35
g16
(g20
S'\xdb\t\x8b\x12k!r?'
p585
tp586
Rp587
sg39
g16
(g20
S'\x1cO)\x05\n\xe2f?'
p588
tp589
Rp590
sg43
g16
(g20
S'/N\xe1|\x18z\xb1?'
p591
tp592
Rp593
sg47
g16
(g20
S'\x02\x981\xbb.\x99\xb0?'
p594
tp595
Rp596
ssba(icore
City
p597
(dp598
g3
(dp599
g5
I7508
sg6
I13755
sg7
F3.664091635588705
sg8
I17
sg9
I4872
sg10
F27510.0
ssg11
S'as-suwayda'
p600
sg13
(dp601
g15
g16
(g20
S'\xe8\x9a\x976\xcd\xcb\xee?'
p602
tp603
Rp604
sg26
g16
(g20
S'E\xbc\xac\xb6c\x8bK@'
p605
tp606
Rp607
sg30
I01
sg31
g16
(g20
S'\xabyjz\xcbH\xb9?'
p608
tp609
Rp610
sg35
g16
(g20
S'`IZ\xf0\xd7l\x87?'
p611
tp612
Rp613
sg39
g16
(g20
S'M\x8cg\xb3Pa\x8b?'
p614
tp615
Rp616
sg43
g16
(g20
S'2\xb3\xe3\x9e>\xfd\xb5?'
p617
tp618
Rp619
sg47
g16
(g20
S'\x82|;\xbby\x0b\xc1?'
p620
tp621
Rp622
ssba(icore
City
p623
(dp624
g3
(dp625
g5
I62127
sg6
I98813
sg7
F3.181000209248797
sg8
I166
sg9
I60797
sg10
F197626.0
ssg11
S'phoenix'
p626
sg13
(dp627
g15
g16
(g20
S'\xb5\x90(3\x8eg\xee?'
p628
tp629
Rp630
sg26
g16
(g20
S'u\xf2h\x04O\x80j@'
p631
tp632
Rp633
sg30
I01
sg31
g16
(g20
S'\xbdA\xea9\xaeY\xbb?'
p634
tp635
Rp636
sg35
g16
(g20
S'Y}h\xd3\x92Lp?'
p637
tp638
Rp639
sg39
g16
(g20
S'|jV\x96N\x10`?'
p640
tp641
Rp642
sg43
g16
(g20
S'\x88\xd44\x88C\xf9\x9f?'
p643
tp644
Rp645
sg47
g16
(g20
S'\x87\x0c\xe0\xe6\x01P\xc0?'
p646
tp647
Rp648
ssba(icore
City
p649
(dp650
g3
(dp651
g5
I127523
sg6
I196267
sg7
F3.0781427664029235
sg8
I325
sg9
I125908
sg10
F392534.0
ssg11
S'dallas'
p652
sg13
(dp653
g15
g16
(g20
S'09\x9d\xa6\x15\x97\xef?'
p654
tp655
Rp656
sg26
g16
(g20
S'x\x18\xd9\xff\x7fjd@'
p657
tp658
Rp659
sg30
I01
sg31
g16
(g20
S'|\xa6\x15\x944\x9d\xab?'
p660
tp661
Rp662
sg35
g16
(g20
S'k\x90A\xf5Q\xe0f?'
p663
tp664
Rp665
sg39
g16
(g20
S'\xcf\t\x13\xe2,\x93U?'
p666
tp667
Rp668
sg43
g16
(g20
S'{\x88\xf1ar,\xa3?'
p669
tp670
Rp671
sg47
g16
(g20
S'\x87\x8e\xbe0\xfb\x16\xb3?'
p672
tp673
Rp674
ssba(icore
City
p675
(dp676
g3
(dp677
g5
I2590
sg6
I3703
sg7
F2.8594594594594596
sg8
I45
sg9
I1767
sg10
F7406.0
ssg11
S'beijing'
p678
sg13
(dp679
g15
g16
(g20
S'\x8e\xc3\xee\xd0{O\xef?'
p680
tp681
Rp682
sg26
g16
(g20
S'\xd8F\x03\xff>\xdc7@'
p683
tp684
Rp685
sg30
I01
sg31
g16
(g20
S'\x9f\xe2\xab\xa6\xa8+\xb5?'
p686
tp687
Rp688
sg35
g16
(g20
S'\\}T\xd8\xb2\xec\x93?'
p689
tp690
Rp691
sg39
g16
(g20
S'\xa6\xb7\xc6\xc2v\xe3\x7f?'
p692
tp693
Rp694
sg43
g16
(g20
S'T:\x87\x01?\xde\xc1?'
p695
tp696
Rp697
sg47
g16
(g20
S'\xbf\xe3\xf8/i\xd7\xc1?'
p698
tp699
Rp700
ssba(icore
City
p701
(dp702
g3
(dp703
g5
I173757
sg6
I284163
sg7
F3.270809233584834
sg8
I182
sg9
I173086
sg10
F568326.0
ssg11
S'munich'
p704
sg13
(dp705
g15
g16
(g20
S'\xb8\x15z\xaco\xda\xef?'
p706
tp707
Rp708
sg26
g16
(g20
S'\x8a\xbc\xbd\xc7\x12\xceS@'
p709
tp710
Rp711
sg30
I01
sg31
g16
(g20
S'\x11\x98\x86B8\\\x96?'
p712
tp713
Rp714
sg35
g16
(g20
S'\xc1,k\x9e\x14\xa4c?'
p715
tp716
Rp717
sg39
g16
(g20
S'\x88\xab\xdf\xaa\xb9\xbb@?'
p718
tp719
Rp720
sg43
g16
(g20
S'3\xc25\xda\xe1\xdc\xb1?'
p721
tp722
Rp723
sg47
g16
(g20
S'\xcd\xb6#`\xba\x97\xa1?'
p724
tp725
Rp726
ssba(icore
City
p727
(dp728
g3
(dp729
g5
I8918
sg6
I15184
sg7
F3.4052478134110786
sg8
I69
sg9
I8373
sg10
F30368.0
ssg11
S'damascus'
p730
sg13
(dp731
g15
g16
(g20
S'\xeb,x*R\x16\xef?'
p732
tp733
Rp734
sg26
g16
(g20
S'\xbc|v\xff\x10\xf0K@'
p735
tp736
Rp737
sg30
I01
sg31
g16
(g20
S's\xd3\\\x87\xe9\x15\xb7?'
p738
tp739
Rp740
sg35
g16
(g20
S'\xb06\x1f\xa2\xac\x83\x85?'
p741
tp742
Rp743
sg39
g16
(g20
S'\xe7-\x90\x08\xcc\xa9\x83?'
p744
tp745
Rp746
sg43
g16
(g20
S'xY\xe6\xe6\x8d]\xb5?'
p747
tp748
Rp749
sg47
g16
(g20
S'\x93\xa83\x0c\x8c\x1c\xc0?'
p750
tp751
Rp752
ssba(icore
City
p753
(dp754
g3
(dp755
g5
I16012
sg6
I26429
sg7
F3.30114913814639
sg8
I147
sg9
I15273
sg10
F52858.0
ssg11
S'hong-kong'
p756
sg13
(dp757
g15
g16
(g20
S'B\x82I\xe5k\x83\xef?'
p758
tp759
Rp760
sg26
g16
(g20
S'\xf5\x0c\xffgS\xc2L@'
p761
tp762
Rp763
sg30
I01
sg31
g16
(g20
S'\xf3V\xaf\x8e\xba\xa9\xb0?'
p764
tp765
Rp766
sg35
g16
(g20
S'\xa9\x18\xb0d\x16\x1b\x80?'
p767
tp768
Rp769
sg39
g16
(g20
S'7<\xc2#8\xcfp?'
p770
tp771
Rp772
sg43
g16
(g20
S'\xf9\xdc\xcap-g\xb4?'
p773
tp774
Rp775
sg47
g16
(g20
S'v\xa0\xbc\x1d\xa0B\xb9?'
p776
tp777
Rp778
ssba(icore
City
p779
(dp780
g3
(dp781
g5
I2677
sg6
I3579
sg7
F2.673888681359731
sg8
I39
sg9
I2403
sg10
F7158.0
ssg11
S'kamloops'
p782
sg13
(dp783
g15
g16
(g20
S'r\xd6&y\x140\xed?'
p784
tp785
Rp786
sg26
g16
(g20
S'\x14D\xe6\xa7RjK@'
p787
tp788
Rp789
sg30
I01
sg31
g16
(g20
S'i\xe7\xcf8z\xd3\xc7?'
p790
tp791
Rp792
sg35
g16
(g20
S'Y\xd1(!\xf1A\x93?'
p793
tp794
Rp795
sg39
g16
(g20
S'\xaa\x92L]\xc2\xa6\x8f?'
p796
tp797
Rp798
sg43
g16
(g20
S'\xfe\x80\xc7"\xd5\xde\xb4?'
p799
tp800
Rp801
sg47
g16
(g20
S'\x15\xa9\xa8r\xed\x86\xcd?'
p802
tp803
Rp804
ssba(icore
City
p805
(dp806
g3
(dp807
g5
I93297
sg6
I172784
sg7
F3.7039561829426457
sg8
I173
sg9
I92519
sg10
F345568.0
ssg11
S'helsinki'
p808
sg13
(dp809
g15
g16
(g20
S'>\xee\xe0"\x8bE\xef?'
p810
tp811
Rp812
sg26
g16
(g20
S'\xd2\x90\xa0C\x7f\xe0f@'
p813
tp814
Rp815
sg30
I01
sg31
g16
(g20
S'*\xe1DT\xf4\x94\xb2?'
p816
tp817
Rp818
sg35
g16
(g20
S'\xf8_\xfb(\xb7\xb2j?'
p819
tp820
Rp821
sg39
g16
(g20
S'\xd9e\x010\xe7\xf5^?'
p822
tp823
Rp824
sg43
g16
(g20
S'G\xccf0\x9c\x88\xa1?'
p825
tp826
Rp827
sg47
g16
(g20
S'\x9f#\xb2a\xe5\\\xb8?'
p828
tp829
Rp830
ssba(icore
City
p831
(dp832
g3
(dp833
g5
I2525
sg6
I4057
sg7
F3.2134653465346537
sg8
I44
sg9
I1400
sg10
F8114.0
ssg11
S'quito-ecuador'
p834
sg13
(dp835
g15
g16
(g20
S';\xc96\xdb\x17Z\xee?'
p836
tp837
Rp838
sg26
g16
(g20
S'ae\xe2~\t\xf9D@'
p839
tp840
Rp841
sg30
I01
sg31
g16
(g20
S'\xf9}cw\\\xe8\xc2?'
p842
tp843
Rp844
sg35
g16
(g20
S'f\xe1K\x1f\xb1\xf0\x93?'
p845
tp846
Rp847
sg39
g16
(g20
S'\x1f\xfb\xa2.x\x8f\x90?'
p848
tp849
Rp850
sg43
g16
(g20
S'\xa5\x7f2\x83n+\xb8?'
p851
tp852
Rp853
sg47
g16
(g20
S'F~\xb0\xfczf\xca?'
p854
tp855
Rp856
ssba(icore
City
p857
(dp858
g3
(dp859
g5
I74404
sg6
I120151
sg7
F3.229691952045589
sg8
I57
sg9
I74124
sg10
F240302.0
ssg11
S'hamburg'
p860
sg13
(dp861
g15
g16
(g20
S'\xe7`v\x8a\x90\xae\xef?'
p862
tp863
Rp864
sg26
g16
(g20
S'N\xc5[+\xb7\x8cY@'
p865
tp866
Rp867
sg30
I01
sg31
g16
(g20
S'\x90\xf0\xed\x15\x1e\xb5\xa7?'
p868
tp869
Rp870
sg35
g16
(g20
S'\xf2:\xb9\xd6\xe6\xf6m?'
p871
tp872
Rp873
sg39
g16
(g20
S'\x06\xabW\xf1\xf8\x9cX?'
p874
tp875
Rp876
sg43
g16
(g20
S'\xa0\x17\\;D\xd5\xab?'
p877
tp878
Rp879
sg47
g16
(g20
S'8oYW\xa99\xb1?'
p880
tp881
Rp882
ssba(icore
City
p883
(dp884
g3
(dp885
g5
I64730
sg6
I109973
sg7
F3.3978989649312528
sg8
I126
sg9
I64192
sg10
F219946.0
ssg11
S'philadelphia'
p886
sg13
(dp887
g15
g16
(g20
S'\x9b\xa6\xd6U\xd3\xd2\xef?'
p888
tp889
Rp890
sg26
g16
(g20
S'\x82\x16\x8a\xd1\xba\xb1O@'
p891
tp892
Rp893
sg30
I01
sg31
g16
(g20
S'\x87$\xdcP5\xed\x9f?'
p894
tp895
Rp896
sg35
g16
(g20
S'\xf5\xe7w#\xdb\x13p?'
p897
tp898
Rp899
sg39
g16
(g20
S'\x8e\x05\xccY\x01\xcb_?'
p900
tp901
Rp902
sg43
g16
(g20
S'\xb9-J\x94@W\xb3?'
p903
tp904
Rp905
sg47
g16
(g20
S'0J\xd0\xa1\xcf\x99\xaa?'
p906
tp907
Rp908
ssba(icore
City
p909
(dp910
g3
(dp911
g5
I153381
sg6
I267335
sg7
F3.4858946023301454
sg8
I493
sg9
I150941
sg10
F534670.0
ssg11
S'paris'
p912
sg13
(dp913
g15
g16
(g20
S'\xb9b\xb2\\\x10\xf6\xef?'
p914
tp915
Rp916
sg26
g16
(g20
S'L{\xa0\x02\xe8\x89K@'
p917
tp918
Rp919
sg30
I01
sg31
g16
(g20
S'm\xc2S\x8f\x19\xb8\x90?'
p920
tp921
Rp922
sg35
g16
(g20
S'\xfe\x971\xc5\xe2\xe7d?'
p923
tp924
Rp925
sg39
g16
(g20
S'V\x97\xd8\xd4\x0b"@?'
p926
tp927
Rp928
sg43
g16
(g20
S'\x90\xc32m\xc2\xc4\xb3?'
p929
tp930
Rp931
sg47
g16
(g20
S'\xe3|\x03\x9c\xa0\xeb\xa0?'
p932
tp933
Rp934
ssba(icore
City
p935
(dp936
g3
(dp937
g5
I459
sg6
I596
sg7
F2.596949891067538
sg8
I20
sg9
I76
sg10
F1192.0
ssg11
S'chengdu'
p938
sg13
(dp939
g15
g16
(g20
S'\xdd\xf2\xcc\xe0\x0e\x90\xee?'
p940
tp941
Rp942
sg26
g16
(g20
S"b\xb4\xdc\xe6\xba0'@"
p943
tp944
Rp945
sg30
I01
sg31
g16
(g20
S'w\x10@x\x90V\xbf?'
p946
tp947
Rp948
sg35
g16
(g20
S'\xe5\xed\xc1\xde7T\xa7?'
p949
tp950
Rp951
sg39
g16
(g20
S'\x8e\xa2\x17Jk\\\x97?'
p952
tp953
Rp954
sg43
g16
(g20
S'1\xd1\xe3QU\xe2\xca?'
p955
tp956
Rp957
sg47
g16
(g20
S'\x06\xfcf\x0e\xb2\xc4\xcb?'
p958
tp959
Rp960
ssba(icore
City
p961
(dp962
g3
(dp963
g5
I6291
sg6
I10237
sg7
F3.25449054204419
sg8
I15
sg9
I6215
sg10
F20474.0
ssg11
S'wroclaw'
p964
sg13
(dp965
g15
g16
(g20
S'7\xbc\xdd\x8bb7\xef?'
p966
tp967
Rp968
sg26
g16
(g20
S'\x7f\x8bRh\x1fyE@'
p969
tp970
Rp971
sg30
I01
sg31
g16
(g20
S'5Y\x9f#\t\xf8\xb5?'
p972
tp973
Rp974
sg35
g16
(g20
S':X\x1eMq\x9c\x89?'
p975
tp976
Rp977
sg39
g16
(g20
S'\x9d$\xf1\rq\xcc}?'
p978
tp979
Rp980
sg43
g16
(g20
S'|}\x8b^W+\xb9?'
p981
tp982
Rp983
sg47
g16
(g20
S'\xec\xcd\xd7\xde\xe5G\xc0?'
p984
tp985
Rp986
ssba(icore
City
p987
(dp988
g3
(dp989
g5
I200380
sg6
I318129
sg7
F3.1752570116778123
sg8
I516
sg9
I197732
sg10
F636258.0
ssg11
S'los-angeles'
p990
sg13
(dp991
g15
g16
(g20
S'\xba\x81C\\a\xfb\xee?'
p992
tp993
Rp994
sg26
g16
(g20
S'\xd7\n+\xce(qt@'
p995
tp996
Rp997
sg30
I01
sg31
g16
(g20
S')\xa8C8\x9e=\xb5?'
p998
tp999
Rp1000
sg35
g16
(g20
S'\x91&\xe6\xa0\xe24b?'
p1001
tp1002
Rp1003
sg39
g16
(g20
S'\xdf\nP\x02\xcb{Q?'
p1004
tp1005
Rp1006
sg43
g16
(g20
S'\x11\xb7eM`~\x96?'
p1007
tp1008
Rp1009
sg47
g16
(g20
S'aU\xb1\x12\xaf\xe6\xb9?'
p1010
tp1011
Rp1012
ssba(icore
City
p1013
(dp1014
g3
(dp1015
g5
I22432
sg6
I31743
sg7
F2.8301533523537805
sg8
I54
sg9
I22244
sg10
F63486.0
ssg11
S'glasgow'
p1016
sg13
(dp1017
g15
g16
(g20
S'\xe8\x1ax[\xbf\xc9\xef?'
p1018
tp1019
Rp1020
sg26
g16
(g20
S'U\xe2A\xe0\xfcuD@'
p1021
tp1022
Rp1023
sg30
I01
sg31
g16
(g20
S'+\xe0\xe2\xec\x93[\xa3?'
p1024
tp1025
Rp1026
sg35
g16
(g20
S'_{\xc1\x98\xafJ{?'
p1027
tp1028
Rp1029
sg39
g16
(g20
S'r\xe7(~\x80\x88h?'
p1030
tp1031
Rp1032
sg43
g16
(g20
S'\xcb\xcd\xfcH\xdc\x99\xba?'
p1033
tp1034
Rp1035
sg47
g16
(g20
S'\xd0*\xa4j[j\xb0?'
p1036
tp1037
Rp1038
ssba(icore
City
p1039
(dp1040
g3
(dp1041
g5
I25691
sg6
I39350
sg7
F3.0633295706667703
sg8
I87
sg9
I25051
sg10
F78700.0
ssg11
S'bangkok'
p1042
sg13
(dp1043
g15
g16
(g20
S'\x1b\x15\xb2dZ\xce\xee?'
p1044
tp1045
Rp1046
sg26
g16
(g20
S'\x00\x00\x00\x00\x00\x00\xf8\xff'
p1047
tp1048
Rp1049
sg30
I01
sg31
g16
(g20
S'\x00\x00\x00\x00\x00\x00\xf8\xff'
p1050
tp1051
Rp1052
sg35
g16
(g20
S'\xcd+\xa8]PMy?'
p1053
tp1054
Rp1055
sg39
g16
(g20
S'\xa0\xbd\x9b\xc2?\xef\x9d?'
p1056
tp1057
Rp1058
sg43
g16
(g20
S'\xd4E\xaa\xd8\x9c\x8c\xa6?'
p1059
tp1060
Rp1061
sg47
g16
(g20
S'\xb0\x1f\x9d\xa6\x06\xf4\xc1?'
p1062
tp1063
Rp1064
ssba(icore
City
p1065
(dp1066
g3
(dp1067
g5
I6029
sg6
I9001
sg7
F2.9859014761983746
sg8
I147
sg9
I5319
sg10
F18002.0
ssg11
S'calgary'
p1068
sg13
(dp1069
g15
g16
(g20
S'\xf6e\x85\x1e8d\xee?'
p1070
tp1071
Rp1072
sg26
g16
(g20
S'R\x15G\xbc>\x05L@'
p1073
tp1074
Rp1075
sg30
I01
sg31
g16
(g20
S'\xd4\xcap\xc0Am\xbd?'
p1076
tp1077
Rp1078
sg35
g16
(g20
S'\x13\xb35AW\x15\x8a?'
p1079
tp1080
Rp1081
sg39
g16
(g20
S'6g\xc9\xde\x8d\xd5\x89?'
p1082
tp1083
Rp1084
sg43
g16
(g20
S'.a{\x9a\xc3\xf3\xb5?'
p1085
tp1086
Rp1087
sg47
g16
(g20
S'\xc0y\\G\xd2\x02\xc3?'
p1088
tp1089
Rp1090
ssba(icore
City
p1091
(dp1092
g3
(dp1093
g5
I85331
sg6
I163443
sg7
F3.830800060939166
sg8
I70
sg9
I84949
sg10
F326886.0
ssg11
S'rotterdam'
p1094
sg13
(dp1095
g15
g16
(g20
S'9\xba\x16\x92\x80\xa5\xef?'
p1096
tp1097
Rp1098
sg26
g16
(g20
S':\xb9\xb7;>\xae\\@'
p1099
tp1100
Rp1101
sg30
I01
sg31
g16
(g20
S'\xb7{v\xd7\xee\x8c\xa8?'
p1102
tp1103
Rp1104
sg35
g16
(g20
S'\xa27\xa3T\x1d\xfak?'
p1105
tp1106
Rp1107
sg39
g16
(g20
S'v2\x0f\xb5\xfalS?'
p1108
tp1109
Rp1110
sg43
g16
(g20
S'\xf3\x8e\xc6\xfa\xcbZ\xa9?'
p1111
tp1112
Rp1113
sg47
g16
(g20
S'\xb3\x93r\x1f\xa2\xa7\xb1?'
p1114
tp1115
Rp1116
ssba(icore
City
p1117
(dp1118
g3
(dp1119
g5
I40897
sg6
I67824
sg7
F3.316820304667824
sg8
I124
sg9
I40355
sg10
F135648.0
ssg11
S'st-petersburg'
p1120
sg13
(dp1121
g15
g16
(g20
S'\xe2y\xf5\x7f+\xb3\xef?'
p1122
tp1123
Rp1124
sg26
g16
(g20
S'\x1ed\xc3gu\xf5P@'
p1125
tp1126
Rp1127
sg30
I01
sg31
g16
(g20
S'\x06c`\xca\xd5k\xa6?'
p1128
tp1129
Rp1130
sg35
g16
(g20
S'7\x1a\xdc\xed\x915t?'
p1131
tp1132
Rp1133
sg39
g16
(g20
S'\x99!\xec\xfd\xed\x93i?'
p1134
tp1135
Rp1136
sg43
g16
(g20
S'\x08r\xc0\xc0\xbc\xfa\xb2?'
p1137
tp1138
Rp1139
sg47
g16
(g20
S'\xa2\xcb\xfd\xd1h\t\xb1?'
p1140
tp1141
Rp1142
ssba(icore
City
p1143
(dp1144
g3
(dp1145
g5
I17691
sg6
I27682
sg7
F3.1295008761517153
sg8
I73
sg9
I17341
sg10
F55364.0
ssg11
S'rome'
p1146
sg13
(dp1147
g15
g16
(g20
S'S]\xe0\x0fAP\xef?'
p1148
tp1149
Rp1150
sg26
g16
(g20
S'\x03b\xcf\xa5\x852Q@'
p1151
tp1152
Rp1153
sg30
I01
sg31
g16
(g20
S'\xdc<P*\x08\xc4\xb2?'
p1154
tp1155
Rp1156
sg35
g16
(g20
S'\xd6\xf7\xb4\xd0\xbb\xa1~?'
p1157
tp1158
Rp1159
sg39
g16
(g20
S'\xaf\x04\x91\x9a\x14\x00\x7f?'
p1160
tp1161
Rp1162
sg43
g16
(g20
S'0\x08\xee\xb3\xd2\x9a\xb2?'
p1163
tp1164
Rp1165
sg47
g16
(g20
S'\xdfh\xe1Y\xd8W\xba?'
p1166
tp1167
Rp1168
ssba(icore
City
p1169
(dp1170
g3
(dp1171
g5
I448
sg6
I624
sg7
F2.7857142857142856
sg8
I18
sg9
I323
sg10
F1248.0
ssg11
S'santiago'
p1172
sg13
(dp1173
g15
g16
(g20
S'\xf3\x8dp\x1d\x89U\xe8?'
p1174
tp1175
Rp1176
sg26
g16
(g20
S'\x97\x00^\xe8\x94KB@'
p1177
tp1178
Rp1179
sg30
I01
sg31
g16
(g20
S'\xbf`4\xb1\xd0\x1f\xd9?'
p1180
tp1181
Rp1182
sg35
g16
(g20
S'r\xe0F\xd81\xb0\xa5?'
p1183
tp1184
Rp1185
sg39
g16
(g20
S'{\x82)\xfd\xf0\xf4\xb1?'
p1186
tp1187
Rp1188
sg43
g16
(g20
S'\xfc\xd8\xc7x\x89|\xb8?'
p1189
tp1190
Rp1191
sg47
g16
(g20
S'\x95I\xd74\xdaW\xdc?'
p1192
tp1193
Rp1194
ssba(icore
City
p1195
(dp1196
g3
(dp1197
g5
I13250
sg6
I16504
sg7
F2.4911698113207548
sg8
I23
sg9
I10272
sg10
F33008.0
ssg11
S'mobile-al'
p1198
sg13
(dp1199
g15
g16
(g20
S'>\xc1\x1c8\xf5p\xed?'
p1200
tp1201
Rp1202
sg26
g16
(g20
S'\x9aD\x14\xd8\xce\xd3]@'
p1203
tp1204
Rp1205
sg30
I01
sg31
g16
(g20
S'\x9d\tD\xc3\x81`\xc3?'
p1206
tp1207
Rp1208
sg35
g16
(g20
S'\xac\xfa\xb1N)\x83\x81?'
p1209
tp1210
Rp1211
sg39
g16
(g20
S'C\xfbi\xba\x88Y\x90?'
p1212
tp1213
Rp1214
sg43
g16
(g20
S'\x1a\x1c\xe3\xcd\xa4\xcb\xa8?'
p1215
tp1216
Rp1217
sg47
g16
(g20
S'\xc2\xb1\xde,\xc7\x99\xc6?'
p1218
tp1219
Rp1220
ssba(icore
City
p1221
(dp1222
g3
(dp1223
g5
I57873
sg6
I96453
sg7
F3.3332642164740034
sg8
I238
sg9
I56625
sg10
F192906.0
ssg11
S'moscow'
p1224
sg13
(dp1225
g15
g16
(g20
S'\xd6\xc3\xdbV\xd2\xd5\xef?'
p1226
tp1227
Rp1228
sg26
g16
(g20
S'\xf7\x98\xef\xa0\xe9\x91M@'
p1229
tp1230
Rp1231
sg30
I01
sg31
g16
(g20
S'Q\xfb\xdf\xed\xd9\xd2\x9f?'
p1232
tp1233
Rp1234
sg35
g16
(g20
S'\n\xb9\xb0v\xff\x00q?'
p1235
tp1236
Rp1237
sg39
g16
(g20
S'\x8e\xd4\xea\xfc\x0e\xc3d?'
p1238
tp1239
Rp1240
sg43
g16
(g20
S'\xd5\x18\xdc\xb7\xa1\xb1\xb4?'
p1241
tp1242
Rp1243
sg47
g16
(g20
S'\x91\xa2x\xa4CK\xaa?'
p1244
tp1245
Rp1246
ssba(icore
City
p1247
(dp1248
g3
(dp1249
g5
I103122
sg6
I177138
sg7
F3.4355035782859136
sg8
I157
sg9
I102558
sg10
F354276.0
ssg11
S'berlin'
p1250
sg13
(dp1251
g15
g16
(g20
S'r\xfe\xe6\r\xec\xba\xef?'
p1252
tp1253
Rp1254
sg26
g16
(g20
S'\xfb\x9b\x99\xae\xaf\xc9]@'
p1255
tp1256
Rp1257
sg30
I01
sg31
g16
(g20
S'B\xf1\xc7+n\xd0\xa6?'
p1258
tp1259
Rp1260
sg35
g16
(g20
S'\xf5\x0frJYti?'
p1261
tp1262
Rp1263
sg39
g16
(g20
S'\xd9\xfe\xb3\xbd,\xebI?'
p1264
tp1265
Rp1266
sg43
g16
(g20
S'f:V\xf3j\x14\xa8?'
p1267
tp1268
Rp1269
sg47
g16
(g20
S'wr\n\xf4\xd7\xe9\xb0?'
p1270
tp1271
Rp1272
ssba(icore
City
p1273
(dp1274
g3
(dp1275
g5
I29226
sg6
I51211
sg7
F3.504482310271676
sg8
I67
sg9
I17756
sg10
F102422.0
ssg11
S'budapest'
p1276
sg13
(dp1277
g15
g16
(g20
S'e HbR\xd8\xef?'
p1278
tp1279
Rp1280
sg26
g16
(g20
S'\xb3\xc3{\xb1\xa6\x90D@'
p1281
tp1282
Rp1283
sg30
I01
sg31
g16
(g20
S'\x1f7\xd2O]\x9b\xa0?'
p1284
tp1285
Rp1286
sg35
g16
(g20
S'\xf9d\xa5q#\xebw?'
p1287
tp1288
Rp1289
sg39
g16
(g20
S'y\x82\xf0\xfe\xa8\xac_?'
p1290
tp1291
Rp1292
sg43
g16
(g20
S'?\xeex\xa6,\x9c\xb9?'
p1293
tp1294
Rp1295
sg47
g16
(g20
S'\xd0\xae\xac\xe7\xea\xe2\xad?'
p1296
tp1297
Rp1298
ssba(icore
City
p1299
(dp1300
g3
(dp1301
g5
I2765
sg6
I3740
sg7
F2.705244122965642
sg8
I24
sg9
I2527
sg10
F7480.0
ssg11
S'lexington'
p1302
sg13
(dp1303
g15
g16
(g20
S'D\x85#)\xf9\x81\xee?'
p1304
tp1305
Rp1306
sg26
g16
(g20
S'GF\x10Q\x9b\x8eC@'
p1307
tp1308
Rp1309
sg30
I01
sg31
g16
(g20
S'8\x0f\xe2\xee\xdc\xa7\xc0?'
p1310
tp1311
Rp1312
sg35
g16
(g20
S'\x07\xe6\x020\xfe&\x93?'
p1313
tp1314
Rp1315
sg39
g16
(g20
S'\x92g8j\xf7\xca\x90?'
p1316
tp1317
Rp1318
sg43
g16
(g20
S'\xfek]+\x04u\xba?'
p1319
tp1320
Rp1321
sg47
g16
(g20
S'o\xf3\xe3R2*\xc7?'
p1322
tp1323
Rp1324
ssba(icore
City
p1325
(dp1326
g3
(dp1327
g5
I19164
sg6
I26481
sg7
F2.763619286161553
sg8
I154
sg9
I18296
sg10
F52962.0
ssg11
S'austin'
p1328
sg13
(dp1329
g15
g16
(g20
S'\x80\xb5\xc6f\x04a\xef?'
p1330
tp1331
Rp1332
sg26
g16
(g20
S'\x85\xd2\xe9\xb9\xf85P@'
p1333
tp1334
Rp1335
sg30
I01
sg31
g16
(g20
S'`\x98wV\xa5\xdb\xb0?'
p1336
tp1337
Rp1338
sg35
g16
(g20
S'7\t\r\xba\x8du}?'
p1339
tp1340
Rp1341
sg39
g16
(g20
S'R\xf0\xe8S.#w?'
p1342
tp1343
Rp1344
sg43
g16
(g20
S'4I\x83dG\xbf\xb3?'
p1345
tp1346
Rp1347
sg47
g16
(g20
S'\xb7\xfen\r|\xde\xb7?'
p1348
tp1349
Rp1350
ssba(icore
City
p1351
(dp1352
g3
(dp1353
g5
I61
sg6
I81
sg7
F2.6557377049180326
sg8
I3
sg9
I51
sg10
F162.0
ssg11
S'lagos'
p1354
sg13
(dp1355
g15
g16
(g20
S'0\xb2z\x19\x02\x89\xe4?'
p1356
tp1357
Rp1358
sg26
g16
(g20
S'\x81C\xbc\x92\xf4W(@'
p1359
tp1360
Rp1361
sg30
I01
sg31
g16
(g20
S'\x8ae6\xe9E\xd1\xe0?'
p1362
tp1363
Rp1364
sg35
g16
(g20
S'P(\xdf|\xb6l\xba?'
p1365
tp1366
Rp1367
sg39
g16
(g20
S'_\x1e[\x114\x9c\xc4?'
p1368
tp1369
Rp1370
sg43
g16
(g20
S'\xbe\x1a\xd4\x1c\xaeT\xc6?'
p1371
tp1372
Rp1373
sg47
g16
(g20
S'\xa8\x7f\x90J\xea\xee\xe2?'
p1374
tp1375
Rp1376
ssba(icore
City
p1377
(dp1378
g3
(dp1379
g5
I3131
sg6
I3879
sg7
F2.4778026189715745
sg8
I26
sg9
I2207
sg10
F7758.0
ssg11
S'macon-ga'
p1380
sg13
(dp1381
g15
g16
(g20
S'tn\xac\xf6\x83\x87\xed?'
p1382
tp1383
Rp1384
sg26
g16
(g20
S'\xe1\xad\x00\xe6\x0cVL@'
p1385
tp1386
Rp1387
sg30
I01
sg31
g16
(g20
S'a\xc2\xb7t\xedS\xc6?'
p1388
tp1389
Rp1390
sg35
g16
(g20
S'\xc0\xd9\xb2\x87\xf4\xda\x91?'
p1391
tp1392
Rp1393
sg39
g16
(g20
S"\xf8'\xa1\x842\xd7\x8b?"
p1394
tp1395
Rp1396
sg43
g16
(g20
S'=\x13\xd2U\x82]\xb4?'
p1397
tp1398
Rp1399
sg47
g16
(g20
S'HgXxZ\x0e\xcc?'
p1400
tp1401
Rp1402
ssba(icore
City
p1403
(dp1404
g3
(dp1405
g5
I14582
sg6
I21384
sg7
F2.932931010835276
sg8
I280
sg9
I13225
sg10
F42768.0
ssg11
S'jakarta'
p1406
sg13
(dp1407
g15
g16
(g20
S'\xdb\x89\x1c\xb6\xb4s\xef?'
p1408
tp1409
Rp1410
sg26
g16
(g20
S'\xbcHV\x17\xa9\xfdJ@'
p1411
tp1412
Rp1413
sg30
I01
sg31
g16
(g20
S'\xe9s\x07\xb6\x19\x8c\xb0?'
p1414
tp1415
Rp1416
sg35
g16
(g20
S'^\x01)\xeb\x8b\xe1\x80?'
p1417
tp1418
Rp1419
sg39
g16
(g20
S'\xca\x8f1\x15\xff\xf4\x83?'
p1420
tp1421
Rp1422
sg43
g16
(g20
S"'8,E\xd5\xea\xb5?"
p1423
tp1424
Rp1425
sg47
g16
(g20
S'ub\xfcu\x99\xa5\xb8?'
p1426
tp1427
Rp1428
ssba(icore
City
p1429
(dp1430
g3
(dp1431
g5
I1410
sg6
I2487
sg7
F3.527659574468085
sg8
I5
sg9
I1395
sg10
F4974.0
ssg11
S'siem-reap'
p1432
sg13
(dp1433
g15
g16
(g20
S'p\xe9\xe0\xfe:\xa7\xeb?'
p1434
tp1435
Rp1436
sg26
g16
(g20
S'\x16\xa3\xc7j\xae\x9bJ@'
p1437
tp1438
Rp1439
sg30
I01
sg31
g16
(g20
S'\xbc\x1e#\xf4\x10W\xd1?'
p1440
tp1441
Rp1442
sg35
g16
(g20
S'\xe7\xcd\x92>5\xc6\x99?'
p1443
tp1444
Rp1445
sg39
g16
(g20
S'\xa7\xc4:\x8e\xb7\xa5\xad?'
p1446
tp1447
Rp1448
sg43
g16
(g20
S'\x05\xf1\x1d\xe6\x9d\xb9\xb3?'
p1449
tp1450
Rp1451
sg47
g16
(g20
S'\x89\x15\x89\t$\xe8\xd4?'
p1452
tp1453
Rp1454
ssba(icore
City
p1455
(dp1456
g3
(dp1457
g5
I5895
sg6
I13772
sg7
F4.672434266327396
sg8
I22
sg9
I3945
sg10
F27544.0
ssg11
S'brasilia-brazil'
p1458
sg13
(dp1459
g15
g16
(g20
S':\x15\xe9Y\xfb\xa3\xef?'
p1460
tp1461
Rp1462
sg26
g16
(g20
S'\x00\x00\x00\x00\x00\x00\xf8\xff'
p1463
tp1464
Rp1465
sg30
I01
sg31
g16
(g20
S'\x00\x00\x00\x00\x00\x00\xf8\xff'
p1466
tp1467
Rp1468
sg35
g16
(g20
S'n\xc9\x13\xe6u\x89\x8a?'
p1469
tp1470
Rp1471
sg39
g16
(g20
S'j\xb2\xa5Q\x10\xbd\x94?'
p1472
tp1473
Rp1474
sg43
g16
(g20
S'\xb6 \xdcZ\x15b\xc0?'
p1475
tp1476
Rp1477
sg47
g16
(g20
S'\x15\xd3ru\x96\xea\xb9?'
p1478
tp1479
Rp1480
ssba(icore
City
p1481
(dp1482
g3
(dp1483
g5
I14678
sg6
I23821
sg7
F3.2458100558659218
sg8
I40
sg9
I14543
sg10
F47642.0
ssg11
S'florence'
p1484
sg13
(dp1485
g15
g16
(g20
S'\x9e\xf6#\xd8t\t\xef?'
p1486
tp1487
Rp1488
sg26
g16
(g20
S'\r\xf5;\x97wxQ@'
p1489
tp1490
Rp1491
sg30
I01
sg31
g16
(g20
S';\x16\xf1\xbe)V\xb5?'
p1492
tp1493
Rp1494
sg35
g16
(g20
S'\xaa#\xa6\xafg\xcc\x80?'
p1495
tp1496
Rp1497
sg39
g16
(g20
S'\x01\xbf\xa1\x9c\x99\xd1v?'
p1498
tp1499
Rp1500
sg43
g16
(g20
S'\xdc\xae\xe1\xeb\xca\xcb\xb2?'
p1501
tp1502
Rp1503
sg47
g16
(g20
S'\xb2@5\xe8^\x99\xbc?'
p1504
tp1505
Rp1506
ssba(icore
City
p1507
(dp1508
g3
(dp1509
g5
I63389
sg6
I110129
sg7
F3.4747038129643943
sg8
I300
sg9
I61212
sg10
F220258.0
ssg11
S'toronto'
p1510
sg13
(dp1511
g15
g16
(g20
S'\xc30\x17\xd4\x9a\xf9\xee?'
p1512
tp1513
Rp1514
sg26
g16
(g20
S'Y\x85K\x9c\xd0\x1fb@'
p1515
tp1516
Rp1517
sg30
I01
sg31
g16
(g20
S'\x83\xbb\t\xd2\xf2{\xb2?'
p1518
tp1519
Rp1520
sg35
g16
(g20
S'U\xa2\x8d\x8cp3p?'
p1521
tp1522
Rp1523
sg39
g16
(g20
S'X\xb5\xc1VN\x9cq?'
p1524
tp1525
Rp1526
sg43
g16
(g20
S'E\xacZ@\xbf5\xa6?'
p1527
tp1528
Rp1529
sg47
g16
(g20
S'Qi\t\xfe\x9cW\xb7?'
p1530
tp1531
Rp1532
ssba(icore
City
p1533
(dp1534
g3
(dp1535
g5
I4740
sg6
I6867
sg7
F2.8974683544303796
sg8
I100
sg9
I4291
sg10
F13734.0
ssg11
S'dushanbe'
p1536
sg13
(dp1537
g15
g16
(g20
S'^\xb5\xabc\x05\x06\xef?'
p1538
tp1539
Rp1540
sg26
g16
(g20
S'U\x14s\xa2\xb4\x1cD@'
p1541
tp1542
Rp1543
sg30
I01
sg31
g16
(g20
S"\x17\xdc\x04'x\x7f\xb8?"
p1544
tp1545
Rp1546
sg35
g16
(g20
S'\xdc3~X\x9bv\x8d?'
p1547
tp1548
Rp1549
sg39
g16
(g20
S'\x9b\x15CE\xac\x86\x86?'
p1550
tp1551
Rp1552
sg43
g16
(g20
S'M\xf2\xc0Y\n\xbd\xba?'
p1553
tp1554
Rp1555
sg47
g16
(g20
S'\t\xbf$\x97j\xa1\xc1?'
p1556
tp1557
Rp1558
ssba(icore
City
p1559
(dp1560
g3
(dp1561
g5
I104350
sg6
I161821
sg7
F3.1015045519885
sg8
I226
sg9
I103446
sg10
F323642.0
ssg11
S'boston'
p1562
sg13
(dp1563
g15
g16
(g20
S'\xba>>\x15\xf6\xb9\xef?'
p1564
tp1565
Rp1566
sg26
g16
(g20
S'\xbcO\xc2\x0cHzZ@'
p1567
tp1568
Rp1569
sg30
I01
sg31
g16
(g20
S'*\xd3\r\t}#\xa4?'
p1570
tp1571
Rp1572
sg35
g16
(g20
S'\xe9\\pi\x17Qi?'
p1573
tp1574
Rp1575
sg39
g16
(g20
S'\xe3n\xc1X\x0f\xbei?'
p1576
tp1577
Rp1578
sg43
g16
(g20
S'\xc5\xf8n\x0e\xd15\xab?'
p1579
tp1580
Rp1581
sg47
g16
(g20
S'i\x8c\x82\x05\xf3\xc5\xad?'
p1582
tp1583
Rp1584
ssba(icore
City
p1585
(dp1586
g3
(dp1587
g5
I21256
sg6
I34906
sg7
F3.284343244260444
sg8
I31
sg9
I21153
sg10
F69812.0
ssg11
S'bordeaux'
p1588
sg13
(dp1589
g15
g16
(g20
S'4:4\x8d\x1e\x93\xef?'
p1590
tp1591
Rp1592
sg26
g16
(g20
S'\xb6\x93Ba\x19\xa1M@'
p1593
tp1594
Rp1595
sg30
I01
sg31
g16
(g20
S'=J]z\xd2\xf3\xac?'
p1596
tp1597
Rp1598
sg35
g16
(g20
S'\xc8\xa7\x9eV*\xfe{?'
p1599
tp1600
Rp1601
sg39
g16
(g20
S'K}YV\x05\x85p?'
p1602
tp1603
Rp1604
sg43
g16
(g20
S'\xb7\x1c\xdbM\x06\x99\xb4?'
p1605
tp1606
Rp1607
sg47
g16
(g20
S'\xd8\x86\xf3\x9f\x8f\xbe\xb5?'
p1608
tp1609
Rp1610
ssba(icore
City
p1611
(dp1612
g3
(dp1613
g5
I45645
sg6
I74688
sg7
F3.2725599737101545
sg8
I111
sg9
I43900
sg10
F149376.0
ssg11
S'san-diego-tijuana'
p1614
sg13
(dp1615
g15
g16
(g20
S'`\x0ea\xe4\x87\xd2\xef?'
p1616
tp1617
Rp1618
sg26
g16
(g20
S'\x0b\xdb\x8f\x1f\x1eCO@'
p1619
tp1620
Rp1621
sg30
I01
sg31
g16
(g20
S'\xabA\x8c\xb6y\\\xa3?'
p1622
tp1623
Rp1624
sg35
g16
(g20
S'\x98\x02QG\xca!s?'
p1625
tp1626
Rp1627
sg39
g16
(g20
S'\x9a\xc1\xf9\xdd\xf0|p?'
p1628
tp1629
Rp1630
sg43
g16
(g20
S'o\x7fa`\x85\x8f\xb2?'
p1631
tp1632
Rp1633
sg47
g16
(g20
S'\xf4`\x85\xfe\x16~\xb0?'
p1634
tp1635
Rp1636
ssba(icore
City
p1637
(dp1638
g3
(dp1639
g5
I27981
sg6
I46529
sg7
F3.325756763518102
sg8
I44
sg9
I27738
sg10
F93058.0
ssg11
S'lille'
p1640
sg13
(dp1641
g15
g16
(g20
S'*\xfav\x18\xe4\xa7\xef?'
p1642
tp1643
Rp1644
sg26
g16
(g20
S'\xeah\xa4\x95]\xfdN@'
p1645
tp1646
Rp1647
sg30
I01
sg31
g16
(g20
S'X\xa4\xf20>\xaf\xa9?'
p1648
tp1649
Rp1650
sg35
g16
(g20
S'\xdc\x8d\xcb\x04\x0bjx?'
p1651
tp1652
Rp1653
sg39
g16
(g20
S'\x08\x8e\xda?\xfc\x7fh?'
p1654
tp1655
Rp1656
sg43
g16
(g20
S'\xd4\x82\xc6R\xe5\xdc\xb3?'
p1657
tp1658
Rp1659
sg47
g16
(g20
S'\xf6\x9c\x89\x83\x8d\xaa\xb3?'
p1660
tp1661
Rp1662
ssba(icore
City
p1663
(dp1664
g3
(dp1665
g5
I576
sg6
I845
sg7
F2.9340277777777777
sg8
I11
sg9
I541
sg10
F1690.0
ssg11
S'monaco'
p1666
sg13
(dp1667
g15
g16
(g20
S'\x0b\xd3\xc2a\xfb\xb2\xea?'
p1668
tp1669
Rp1670
sg26
g16
(g20
S',8\xbd6*\x1b?@'
p1671
tp1672
Rp1673
sg30
I01
sg31
g16
(g20
S'\xd5\xb1\xb5\xc4w\x17\xd2?'
p1674
tp1675
Rp1676
sg35
g16
(g20
S'\xd4\xe9e\xd52"\xa4?'
p1677
tp1678
Rp1679
sg39
g16
(g20
S'\x81\xa5@\xd7\xbae\xa6?'
p1680
tp1681
Rp1682
sg43
g16
(g20
S'N\x08\x82\x82\x9cr\xbe?'
p1683
tp1684
Rp1685
sg47
g16
(g20
S'\x0c\xa2~\xef\xf8(\xd5?'
p1686
tp1687
Rp1688
ssba(icore
City
p1689
(dp1690
g3
(dp1691
g5
I6621
sg6
I10505
sg7
F3.1732366711977043
sg8
I40
sg9
I6395
sg10
F21010.0
ssg11
S'bratislava'
p1692
sg13
(dp1693
g15
g16
(g20
S'\x15\xef\xcb\xb2\xb4{\xef?'
p1694
tp1695
Rp1696
sg26
g16
(g20
S'\x9c"\x1c;\xeb\xcdA@'
p1697
tp1698
Rp1699
sg30
I01
sg31
g16
(g20
S' \xac\xf94\n\xa7\xb1?'
p1700
tp1701
Rp1702
sg35
g16
(g20
S'5\xba\x02\xd0g\x03\x89?'
p1703
tp1704
Rp1705
sg39
g16
(g20
S'\xc06\xd0\xa2{Al?'
p1706
tp1707
Rp1708
sg43
g16
(g20
S'S\xcd(\x10\\$\xbc?'
p1709
tp1710
Rp1711
sg47
g16
(g20
S'\x055)b>q\xbc?'
p1712
tp1713
Rp1714
ssba(icore
City
p1715
(dp1716
g3
(dp1717
g5
I17467
sg6
I32707
sg7
F3.745004866319345
sg8
I69
sg9
I17120
sg10
F65414.0
ssg11
S'rio-de-janeiro'
p1718
sg13
(dp1719
g15
g16
(g20
S'\x8d\xf1,\x07\xd2\xcd\xef?'
p1720
tp1721
Rp1722
sg26
g16
(g20
S's2\x80k:\x8eB@'
p1723
tp1724
Rp1725
sg30
I01
sg31
g16
(g20
S'\x13\xbe\x05\x84bg\xa4?'
p1726
tp1727
Rp1728
sg35
g16
(g20
S'\xa7kqE\xa5\xe8~?'
p1729
tp1730
Rp1731
sg39
g16
(g20
S'\xf7\xbb,\xd0\x07Tz?'
p1732
tp1733
Rp1734
sg43
g16
(g20
S'\x04.~\x92$]\xba?'
p1735
tp1736
Rp1737
sg47
g16
(g20
S'\xbe.\xe5\xcf\x1e\xc2\xb2?'
p1738
tp1739
Rp1740
ssba(icore
City
p1741
(dp1742
g3
(dp1743
g5
I14792
sg6
I20727
sg7
F2.8024607896160085
sg8
I53
sg9
I14601
sg10
F41454.0
ssg11
S'state-college-pa'
p1744
sg13
(dp1745
g15
g16
(g20
S'\x89\xff\x16\x1b\xd9\xee\xee?'
p1746
tp1747
Rp1748
sg26
g16
(g20
S'\x9b\x12Z\xedr2U@'
p1749
tp1750
Rp1751
sg30
I01
sg31
g16
(g20
S'\xc3\xbb\xb2tW\xc4\xb9?'
p1752
tp1753
Rp1754
sg35
g16
(g20
S'a_\xd6\x919\xb0\x80?'
p1755
tp1756
Rp1757
sg39
g16
(g20
S'\xfdglnR\xb4x?'
p1758
tp1759
Rp1760
sg43
g16
(g20
S'\xce\xdb\x18v\rC\xaf?'
p1761
tp1762
Rp1763
sg47
g16
(g20
S'h\xcc\xbd\xf1\x16\x15\xc1?'
p1764
tp1765
Rp1766
ssba(icore
City
p1767
(dp1768
g3
(dp1769
g5
I748430
sg6
I1512520
sg7
F4.0418476009780475
sg8
I1404
sg9
I740701
sg10
F3025040.0
ssg11
S'tokyo'
p1770
sg13
(dp1771
g15
g16
(g20
S'@Y\\\xba\x01\xdd\xef?'
p1772
tp1773
Rp1774
sg26
g16
(g20
S'\xfbi\x18\\j\xd9d@'
p1775
tp1776
Rp1777
sg30
I01
sg31
g16
(g20
S'@\x07\xabJ\x1f<\x94?'
p1778
tp1779
Rp1780
sg35
g16
(g20
S'qf\xbbr,\xeeR?'
p1781
tp1782
Rp1783
sg39
g16
(g20
S'`i\xb8#M\xbb>?'
p1784
tp1785
Rp1786
sg43
g16
(g20
S'\x81\xcf;P\xcf@\xa4?'
p1787
tp1788
Rp1789
sg47
g16
(g20
S'\xa8\x9b\xbdl\xf4\xe8\x9d?'
p1790
tp1791
Rp1792
ssba(icore
City
p1793
(dp1794
g3
(dp1795
g5
I51677
sg6
I84464
sg7
F3.2689204094664936
sg8
I181
sg9
I47019
sg10
F168928.0
ssg11
S'vancouver'
p1796
sg13
(dp1797
g15
g16
(g20
S'\xdcH\x9e\x7f\x18\xeb\xef?'
p1798
tp1799
Rp1800
sg26
g16
(g20
S'\x9f\xc3\xb7\x0f\xb0\x156@'
p1801
tp1802
Rp1803
sg30
I01
sg31
g16
(g20
S'\x18\xaf\xc7\xaf5j\x89?'
p1804
tp1805
Rp1806
sg35
g16
(g20
S'\xae\x06n\xa8\xce\x02r?'
p1807
tp1808
Rp1809
sg39
g16
(g20
S'\x9f2w\x10c\xbav?'
p1810
tp1811
Rp1812
sg43
g16
(g20
S'\x1dcS\xb3\xcc\xde\xc3?'
p1813
tp1814
Rp1815
sg47
g16
(g20
S'\x96\x86\xa9\x07q\x01\x9d?'
p1816
tp1817
Rp1818
ssba(icore
City
p1819
(dp1820
g3
(dp1821
g5
I22187
sg6
I32369
sg7
F2.91783476810745
sg8
I33
sg9
I22071
sg10
F64738.0
ssg11
S'columbus-oh'
p1822
sg13
(dp1823
g15
g16
(g20
S'|\x8e\xeb\x10\xac\xfd\xed?'
p1824
tp1825
Rp1826
sg26
g16
(g20
S'\x0eN.i\xc4^b@'
p1827
tp1828
Rp1829
sg30
I01
sg31
g16
(g20
S'b\x99\xab\x0e\x9f~\xc1?'
p1830
tp1831
Rp1832
sg35
g16
(g20
S'\xb3k\xffv\xfe!{?'
p1833
tp1834
Rp1835
sg39
g16
(g20
S'\x8b\x8e\xaa\x07|\x8av?'
p1836
tp1837
Rp1838
sg43
g16
(g20
S'\xa9\x95\x15\xf5\xc1\xdc\xa4?'
p1839
tp1840
Rp1841
sg47
g16
(g20
S'\x15 d\x95\x1b\xcf\xc4?'
p1842
tp1843
Rp1844
ssba(icore
City
p1845
(dp1846
g3
(dp1847
g5
I11474
sg6
I19917
sg7
F3.471675091511243
sg8
I319
sg9
I8937
sg10
F39834.0
ssg11
S'seoul'
p1848
sg13
(dp1849
g15
g16
(g20
S'\x10Sv\xbd\x1eP\xef?'
p1850
tp1851
Rp1852
sg26
g16
(g20
S'\xb1\xb1\x1e\xd9\x91sL@'
p1853
tp1854
Rp1855
sg30
I01
sg31
g16
(g20
S'\xdd\xc8\xbf\xc0\xfc*\xb4?'
p1856
tp1857
Rp1858
sg35
g16
(g20
S'X\x95\x10\xea\xf5\xfd\x82?'
p1859
tp1860
Rp1861
sg39
g16
(g20
S'\xa1\x86\x1c\x93;\x8a~?'
p1862
tp1863
Rp1864
sg43
g16
(g20
S'\x97w%X\x91\x9b\xb4?'
p1865
tp1866
Rp1867
sg47
g16
(g20
S'\xc2\xe9*<\xbe}\xbd?'
p1868
tp1869
Rp1870
ssba(icore
City
p1871
(dp1872
g3
(dp1873
g5
I5503
sg6
I8125
sg7
F2.9529347628566236
sg8
I68
sg9
I3467
sg10
F16250.0
ssg11
S'las-vegas'
p1874
sg13
(dp1875
g15
g16
(g20
S'h\x05\x038+\xc6\xef?'
p1876
tp1877
Rp1878
sg26
g16
(g20
S'\x00\x00\x00\x00\x00\x00\xf8\xff'
p1879
tp1880
Rp1881
sg30
I01
sg31
g16
(g20
S'\x00\x00\x00\x00\x00\x00\xf8\xff'
p1882
tp1883
Rp1884
sg35
g16
(g20
S'\xf6\xf2\xbf\x12~\x85\x8b?'
p1885
tp1886
Rp1887
sg39
g16
(g20
S'\xfb\x89\x9egjC\x82?'
p1888
tp1889
Rp1890
sg43
g16
(g20
S'\xcb\x044\xdaN\xc7\xc5?'
p1891
tp1892
Rp1893
sg47
g16
(g20
S'\xb5\xb9U\xed\x188\xb4?'
p1894
tp1895
Rp1896
ssba(icore
City
p1897
(dp1898
g3
(dp1899
g5
I47623
sg6
I85477
sg7
F3.5897360519076917
sg8
I94
sg9
I47290
sg10
F170954.0
ssg11
S'johannesburg'
p1900
sg13
(dp1901
g15
g16
(g20
S'4\x0c\xbcm\xb9\x8f\xef?'
p1902
tp1903
Rp1904
sg26
g16
(g20
S'\xb2\xf4\xfaY\xccrW@'
p1905
tp1906
Rp1907
sg30
I01
sg31
g16
(g20
S'\x17\xce\xbe\xcc\x90R\xac?'
p1908
tp1909
Rp1910
sg35
g16
(g20
S'\xd7\xfb\xf5\x91\xb3\xb5r?'
p1911
tp1912
Rp1913
sg39
g16
(g20
S'\xe0<-\xff\x80\x02\\?'
p1914
tp1915
Rp1916
sg43
g16
(g20
S'\x80\x1cQ9\xd2Y\xad?'
p1917
tp1918
Rp1919
sg47
g16
(g20
S'I\x92`\x0b\x02f\xb4?'
p1920
tp1921
Rp1922
ssba(icore
City
p1923
(dp1924
g3
(dp1925
g5
I52921
sg6
I87178
sg7
F3.294646737589993
sg8
I130
sg9
I51745
sg10
F174356.0
ssg11
S'venice'
p1926
sg13
(dp1927
g15
g16
(g20
S'W\x0fX\x83\xd4\xae\xef?'
p1928
tp1929
Rp1930
sg26
g16
(g20
S'\x99\xb2\xf6X\xd2\xabP@'
p1931
tp1932
Rp1933
sg30
I01
sg31
g16
(g20
S'\x12\x9c@\x81\xaf\xea\xa2?'
p1934
tp1935
Rp1936
sg35
g16
(g20
S'g\xf1\xff\x925\xc7q?'
p1937
tp1938
Rp1939
sg39
g16
(g20
S'\xb4\xe6E\xef\x85\xeaY?'
p1940
tp1941
Rp1942
sg43
g16
(g20
S'9\x8c\xa9|\x0b/\xb4?'
p1943
tp1944
Rp1945
sg47
g16
(g20
S'm\xd3\xb2c\xa2/\xac?'
p1946
tp1947
Rp1948
ssba(icore
City
p1949
(dp1950
g3
(dp1951
g5
I3208
sg6
I5824
sg7
F3.630922693266833
sg8
I14
sg9
I3117
sg10
F11648.0
ssg11
S'tehran'
p1952
sg13
(dp1953
g15
g16
(g20
S'v=\xeam^H\xec?'
p1954
tp1955
Rp1956
sg26
g16
(g20
S'e\xd6\x98\xf1\x8f\xf9R@'
p1957
tp1958
Rp1959
sg30
I01
sg31
g16
(g20
S'\xdeT\x06\xf4\xf9s\xcd?'
p1960
tp1961
Rp1962
sg35
g16
(g20
S'\xd9\x80h\xcb\x00f\x91?'
p1963
tp1964
Rp1965
sg39
g16
(g20
S'1\x87\x04\x96a\xbb\x90?'
p1966
tp1967
Rp1968
sg43
g16
(g20
S'3{\xf3\x9e\xe1\xff\xaf?'
p1969
tp1970
Rp1971
sg47
g16
(g20
S'\xad\xee\xdcO\x11f\xd1?'
p1972
tp1973
Rp1974
ssba(icore
City
p1975
(dp1976
g3
(dp1977
g5
I1822
sg6
I2629
sg7
F2.885839736553238
sg8
I58
sg9
I1639
sg10
F5258.0
ssg11
S'bogota'
p1978
sg13
(dp1979
g15
g16
(g20
S'\xd4&s9#>\xee?'
p1980
tp1981
Rp1982
sg26
g16
(g20
S'\x16\xd1\xdeO\xca+@@'
p1983
tp1984
Rp1985
sg30
I01
sg31
g16
(g20
S'\xcc\xec\xb0i\x83\xe8\xc1?'
p1986
tp1987
Rp1988
sg35
g16
(g20
S'\nO/<\x9b\x88\x97?'
p1989
tp1990
Rp1991
sg39
g16
(g20
S'\xb0\x1a\xc8\xa6\xc4{\xa1?'
p1992
tp1993
Rp1994
sg43
g16
(g20
S'\nmn\x8b\x96P\xbe?'
p1995
tp1996
Rp1997
sg47
g16
(g20
S'!r@\xd1\x83\xd7\xc8?'
p1998
tp1999
Rp2000
ssba(icore
City
p2001
(dp2002
g3
(dp2003
g5
I7983
sg6
I11352
sg7
F2.844043592634348
sg8
I28
sg9
I7838
sg10
F22704.0
ssg11
S'leeds'
p2004
sg13
(dp2005
g15
g16
(g20
S'\x9d\xc3\xf5\xf6\x93C\xef?'
p2006
tp2007
Rp2008
sg26
g16
(g20
S'\x05t\xd1XD\xa9E@'
p2009
tp2010
Rp2011
sg30
I01
sg31
g16
(g20
S'D\x90Dw\xca&\xb3?'
p2012
tp2013
Rp2014
sg35
g16
(g20
S'\xfb\xa3H}\x8b\xc8\x86?'
p2015
tp2016
Rp2017
sg39
g16
(g20
S'\xb9\xf2\xb9\xff\xdc}\x81?'
p2018
tp2019
Rp2020
sg43
g16
(g20
S'\xadc\x07\xffV\xf6\xb9?'
p2021
tp2022
Rp2023
sg47
g16
(g20
S'\x0f\xefBP\xf3\x14\xbc?'
p2024
tp2025
Rp2026
ssba(icore
City
p2027
(dp2028
g3
(dp2029
g5
I3298
sg6
I5046
sg7
F3.0600363856882957
sg8
I73
sg9
I3047
sg10
F10092.0
ssg11
S'chennai'
p2030
sg13
(dp2031
g15
g16
(g20
S'\xbdUo\x81!\xa6\xee?'
p2032
tp2033
Rp2034
sg26
g16
(g20
S'\x00\x00\x00\x00\x00\x00\xf8\xff'
p2035
tp2036
Rp2037
sg30
I01
sg31
g16
(g20
S'\x00\x00\x00\x00\x00\x00\xf8\xff'
p2038
tp2039
Rp2040
sg35
g16
(g20
S'\x0e[\xe7\x83U\x94\x91?'
p2041
tp2042
Rp2043
sg39
g16
(g20
S'\xecj\x11\t\xa5\x8c\xa1?'
p2044
tp2045
Rp2046
sg43
g16
(g20
S'=J\xa1n\x0fB\xba?'
p2047
tp2048
Rp2049
sg47
g16
(g20
S'\xf7\xef\xbf\xa5pl\xc5?'
p2050
tp2051
Rp2052
ssba(icore
City
p2053
(dp2054
g3
(dp2055
g5
I6
sg6
I3
sg7
F1.0
sg8
I3
sg9
I2
sg10
F6.0
ssg11
S'district-of-columbia'
p2056
sg13
(dp2057
g15
g16
(g20
S'\x00\x00\x00\x00\x00\x00\x00\x00'
p2058
tp2059
Rp2060
sg26
g16
(g20
S'\x19\xa3\x1c\xa3\xcdS\t@'
p2061
tp2062
Rp2063
sg30
I01
sg31
g16
(g20
S'\x00\x00\x00\x00\x00\x00\xf0?'
p2064
tp2065
Rp2066
sg35
g16
(g20
S'\x00\x00\x00\x00\x00\x00\x90<'
p2067
tp2068
Rp2069
sg39
g16
(g20
S'\x00\x00\x00\x00\x00\x00\x00\x00'
p2070
tp2071
Rp2072
sg43
g16
(g20
S'\x00\x00\x00\x00\x00\x00\x90<'
p2073
tp2074
Rp2075
sg47
g16
(g20
S'\x00\x00\x00\x00\x00\x00\xf0?'
p2076
tp2077
Rp2078
ssba(icore
City
p2079
(dp2080
g3
(dp2081
g5
I236641
sg6
I350840
sg7
F2.965166644833313
sg8
I624
sg9
I232095
sg10
F701680.0
ssg11
S'dc-baltimore'
p2082
sg13
(dp2083
g15
g16
(g20
S'\xca\x8c\x95yQ\x9e\xef?'
p2084
tp2085
Rp2086
sg26
g16
(g20
S'\x00\xc2\xb9\x03\xf6\x0fe@'
p2087
tp2088
Rp2089
sg30
I01
sg31
g16
(g20
S'\xd9\x19\xaay<\xde\xa3?'
p2090
tp2091
Rp2092
sg35
g16
(g20
S'I\x93\x89\x83\x15\xd1`?'
p2093
tp2094
Rp2095
sg39
g16
(g20
S'G\xc8\xe9\x08\x97\xe3W?'
p2096
tp2097
Rp2098
sg43
g16
(g20
S'\x8dF\xe8\x15[\xf4\xa3?'
p2099
tp2100
Rp2101
sg47
g16
(g20
S'\x15\xc25\xe7\xd5\xf7\xaa?'
p2102
tp2103
Rp2104
ssba(icore
City
p2105
(dp2106
g3
(dp2107
g5
I1909
sg6
I3088
sg7
F3.2352016762702984
sg8
I25
sg9
I1405
sg10
F6176.0
ssg11
S'sofia'
p2108
sg13
(dp2109
g15
g16
(g20
S'e\xd8\x102\xb9\x84\xec?'
p2110
tp2111
Rp2112
sg26
g16
(g20
S'\x17{(\xfb\x11yK@'
p2113
tp2114
Rp2115
sg30
I01
sg31
g16
(g20
S'\xb4\xb22\x1a\x14\x8a\xcd?'
p2116
tp2117
Rp2118
sg35
g16
(g20
S'\x9d\xd4\x17D\xb7z\x96?'
p2119
tp2120
Rp2121
sg39
g16
(g20
S' \x9f\x83(\x06J\x94?'
p2122
tp2123
Rp2124
sg43
g16
(g20
S'5X\xb2\xcc\x8e\xdd\xb3?'
p2125
tp2126
Rp2127
sg47
g16
(g20
S'<N\x19\xb5\xf3\x1a\xd2?'
p2128
tp2129
Rp2130
ssba(icore
City
p2131
(dp2132
g3
(dp2133
g5
I855
sg6
I1393
sg7
F3.2584795321637428
sg8
I20
sg9
I755
sg10
F2786.0
ssg11
S'almaty'
p2134
sg13
(dp2135
g15
g16
(g20
S'\xfb\\2\xa5&\xf9\xec?'
p2136
tp2137
Rp2138
sg26
g16
(g20
S"'\xa3\x8cY\x8f\xcf>@"
p2139
tp2140
Rp2141
sg30
I01
sg31
g16
(g20
S'm\x12\xaeo\x11\xb2\xcb?'
p2142
tp2143
Rp2144
sg35
g16
(g20
S'\xe3\xf2\xc6YN\xc7\xa0?'
p2145
tp2146
Rp2147
sg39
g16
(g20
S'\xe8\x14\xcb\x0c\xea\x11\xa0?'
p2148
tp2149
Rp2150
sg43
g16
(g20
S'<\x03"?\xd2T\xbd?'
p2151
tp2152
Rp2153
sg47
g16
(g20
S'\xbcq\xe3\xa3\x1bN\xd2?'
p2154
tp2155
Rp2156
ssba(icore
City
p2157
(dp2158
g3
(dp2159
g5
I40162
sg6
I87688
sg7
F4.36671480503959
sg8
I158
sg9
I39445
sg10
F175376.0
ssg11
S'lima'
p2160
sg13
(dp2161
g15
g16
(g20
S'\x93YN\x17\x81\xd4\xef?'
p2162
tp2163
Rp2164
sg26
g16
(g20
S'\xc0+H8\xc7\tJ@'
p2165
tp2166
Rp2167
sg30
I01
sg31
g16
(g20
S'=y;\xe2&f\xa1?'
p2168
tp2169
Rp2170
sg35
g16
(g20
S')\x97\xf85mgt?'
p2171
tp2172
Rp2173
sg39
g16
(g20
S'4\xd8\x90\xaf\xd6\xcfh?'
p2174
tp2175
Rp2176
sg43
g16
(g20
S'\x0f\xa7Z\x88t\xe9\xb5?'
p2177
tp2178
Rp2179
sg47
g16
(g20
S'\x8b\n\xf0E?\xcc\xad?'
p2180
tp2181
Rp2182
ssba(icore
City
p2183
(dp2184
g3
(dp2185
g5
I622
sg6
I748
sg7
F2.405144694533762
sg8
I28
sg9
I218
sg10
F1496.0
ssg11
S'sarajevo'
p2186
sg13
(dp2187
g15
g16
(g20
S'\x9e\x18qcX\xe2\xed?'
p2188
tp2189
Rp2190
sg26
g16
(g20
S'\r^\x95Y\xe0\x8a3@'
p2191
tp2192
Rp2193
sg30
I01
sg31
g16
(g20
S'C\x01\x0e\xab@\x9d\xc5?'
p2194
tp2195
Rp2196
sg35
g16
(g20
S'\xc6\x1c[yP\xe1\xa3?'
p2197
tp2198
Rp2199
sg39
g16
(g20
S'\x80\xf5\x93PY.\x93?'
p2200
tp2201
Rp2202
sg43
g16
(g20
S'\xfd7R\x9f\xb3\xeb\xc3?'
p2203
tp2204
Rp2205
sg47
g16
(g20
S'\xd3\xf5\x8fmP\xef\xcf?'
p2206
tp2207
Rp2208
ssba(icore
City
p2209
(dp2210
g3
(dp2211
g5
I26287
sg6
I44381
sg7
F3.3766500551603453
sg8
I36
sg9
I26156
sg10
F88762.0
ssg11
S'strasbourg'
p2212
sg13
(dp2213
g15
g16
(g20
S'\x1c\x83\xcf\xcb\x13\xd0\xef?'
p2214
tp2215
Rp2216
sg26
g16
(g20
S'\xa8\n\x12\xde5\x92C@'
p2217
tp2218
Rp2219
sg30
I01
sg31
g16
(g20
S"\xac\x84'\xcb\x81\xd6\xa0?"
p2220
tp2221
Rp2222
sg35
g16
(g20
S'\xff\xba\x89_\xce8y?'
p2223
tp2224
Rp2225
sg39
g16
(g20
S'E\xeecQ\x86RY?'
p2226
tp2227
Rp2228
sg43
g16
(g20
S'B\x8eg\xcd\xfd\x8e\xbb?'
p2229
tp2230
Rp2231
sg47
g16
(g20
S'^\x05s\xb2hI\xad?'
p2232
tp2233
Rp2234
ssba(icore
City
p2235
(dp2236
g3
(dp2237
g5
I333
sg6
I436
sg7
F2.6186186186186187
sg8
I24
sg9
I170
sg10
F872.0
ssg11
S'kabul'
p2238
sg13
(dp2239
g15
g16
(g20
S'\xd2\x80D\xcby\xba\xea?'
p2240
tp2241
Rp2242
sg26
g16
(g20
S'%\xe5W\x1e\xa0g6@'
p2243
tp2244
Rp2245
sg30
I01
sg31
g16
(g20
S'\xc5\xa0\x99\x1eG\xc1\xd2?'
p2246
tp2247
Rp2248
sg35
g16
(g20
S'\xd2\xeb\x82\xdc\xfb+\xaa?'
p2249
tp2250
Rp2251
sg39
g16
(g20
S'\xaf\x80\xae\t\xa1\x1e\xb9?'
p2252
tp2253
Rp2254
sg43
g16
(g20
S"E\xceb\x00}'\xc2?"
p2255
tp2256
Rp2257
sg47
g16
(g20
S'-\xcbfS\xf0\x10\xd7?'
p2258
tp2259
Rp2260
ssba(icore
City
p2261
(dp2262
g3
(dp2263
g5
I37881
sg6
I60984
sg7
F3.219767165597529
sg8
I52
sg9
I37660
sg10
F121968.0
ssg11
S'montpellier'
p2264
sg13
(dp2265
g15
g16
(g20
S'\x1d\xd9O\x83e\xee\xef?'
p2266
tp2267
Rp2268
sg26
g16
(g20
S'6\xb1\xd4\xb6\xfe\xd47@'
p2269
tp2270
Rp2271
sg30
I01
sg31
g16
(g20
S'\xd1\x9eXh\xfc|\x90?'
p2272
tp2273
Rp2274
sg35
g16
(g20
S'\xbeu\xf5\x1d>\x08u?'
p2275
tp2276
Rp2277
sg39
g16
(g20
S'*\xfd-{b\x8fX?'
p2278
tp2279
Rp2280
sg43
g16
(g20
S'\x192\xe0\x96\xd4\xd5\xc2?'
p2281
tp2282
Rp2283
sg47
g16
(g20
S'g\xfd\xe8\x94\xc0\xdd\xa1?'
p2284
tp2285
Rp2286
ssba(icore
City
p2287
(dp2288
g3
(dp2289
g5
I41738
sg6
I76138
sg7
F3.648377976903541
sg8
I182
sg9
I40833
sg10
F152276.0
ssg11
S'barcelona'
p2290
sg13
(dp2291
g15
g16
(g20
S'\xbdUD\xc1L\xa0\xef?'
p2292
tp2293
Rp2294
sg26
g16
(g20
S'Q.\xd3\xe9\xc7%W@'
p2295
tp2296
Rp2297
sg30
I01
sg31
g16
(g20
S'&\x9aK\xabK<\xae?'
p2298
tp2299
Rp2300
sg35
g16
(g20
S'n\xcd\x8c\xea2\xf8s?'
p2301
tp2302
Rp2303
sg39
g16
(g20
S'\xc3|\x8f\xda\xbd\xdeX?'
p2304
tp2305
Rp2306
sg43
g16
(g20
S'\xcc\xb4\xe9b \r\xac?'
p2307
tp2308
Rp2309
sg47
g16
(g20
S'\xa6\x0e\xb8X\xd5\xc7\xb6?'
p2310
tp2311
Rp2312
ssba(icore
City
p2313
(dp2314
g3
(dp2315
g5
I2534
sg6
I4403
sg7
F3.4751381215469612
sg8
I21
sg9
I1189
sg10
F8806.0
ssg11
S'istanbul'
p2316
sg13
(dp2317
g15
g16
(g20
S'\x90\xf2\x93\xff\x86\xdc\xeb?'
p2318
tp2319
Rp2320
sg26
g16
(g20
S'-\x06\xe7:\xaa\xeaQ@'
p2321
tp2322
Rp2323
sg30
I01
sg31
g16
(g20
S'\xf0\xc5\xdc\xc3\xcd\x1d\xd0?'
p2324
tp2325
Rp2326
sg35
g16
(g20
S'D\xc5\xd0$\x97m\x93?'
p2327
tp2328
Rp2329
sg39
g16
(g20
S'\n\x85\r\xd7\xe5}\xa0?'
p2330
tp2331
Rp2332
sg43
g16
(g20
S'h\xc6O\xa5\x18c\xb0?'
p2333
tp2334
Rp2335
sg47
g16
(g20
S'\xc39\xfc\xc6\x1a\xf8\xd2?'
p2336
tp2337
Rp2338
ssba(icore
City
p2339
(dp2340
g3
(dp2341
g5
I56692
sg6
I97582
sg7
F3.4425315741198053
sg8
I82
sg9
I56305
sg10
F195164.0
ssg11
S'brussels'
p2342
sg13
(dp2343
g15
g16
(g20
S'?7\xad\tZ\xbb\xef?'
p2344
tp2345
Rp2346
sg26
g16
(g20
S'\r\xbeB\x01r#S@'
p2347
tp2348
Rp2349
sg30
I01
sg31
g16
(g20
S',:\xe1u\x87\xd9\xa4?'
p2350
tp2351
Rp2352
sg35
g16
(g20
S'\xfd\x81h6~+q?'
p2353
tp2354
Rp2355
sg39
g16
(g20
S'\x9c;\x87\x18\xa93g?'
p2356
tp2357
Rp2358
sg43
g16
(g20
S'V\xf9`+\xef[\xb1?'
p2359
tp2360
Rp2361
sg47
g16
(g20
S'\xb4\xb3\x9a\xee\xb3\xa6\xaf?'
p2362
tp2363
Rp2364
ssba(icore
City
p2365
(dp2366
g3
(dp2367
g5
I13786
sg6
I24741
sg7
F3.589293486145365
sg8
I41
sg9
I7137
sg10
F49482.0
ssg11
S'new-delhi'
p2368
sg13
(dp2369
g15
g16
(g20
S'@\x11\x1b=?\xbf\xee?'
p2370
tp2371
Rp2372
sg26
g16
(g20
S'\xe7|\x91-GVV@'
p2373
tp2374
Rp2375
sg30
I01
sg31
g16
(g20
S'TI\x9bqrU\xbc?'
p2376
tp2377
Rp2378
sg35
g16
(g20
S'\x92\xfb\xdaP\x88A\x81?'
p2379
tp2380
Rp2381
sg39
g16
(g20
S'\xf7\xbb\x8eA6\x01w?'
p2382
tp2383
Rp2384
sg43
g16
(g20
S'\xee\xa7\xf8ot\x92\xad?'
p2385
tp2386
Rp2387
sg47
g16
(g20
S'\xbe#\x13\xdd7\xac\xc2?'
p2388
tp2389
Rp2390
ssba(icore
City
p2391
(dp2392
g3
(dp2393
g5
I42271
sg6
I146372
sg7
F6.92540985545646
sg8
I89
sg9
I41821
sg10
F292744.0
ssg11
S'buenos-aires'
p2394
sg13
(dp2395
g15
g16
(g20
S'\x8aR&\xb4\xd4?\xef?'
p2396
tp2397
Rp2398
sg26
g16
(g20
S'\xd0a\xcb\x06\x7fD^@'
p2399
tp2400
Rp2401
sg30
I01
sg31
g16
(g20
S'\xe6D\x8c\xb7\x92\x9e\xb3?'
p2402
tp2403
Rp2404
sg35
g16
(g20
S'_S\xf9\x87\xaa\xd0s?'
p2405
tp2406
Rp2407
sg39
g16
(g20
S'\xe7L\x9d\xfd\xf3\xa6w?'
p2408
tp2409
Rp2410
sg43
g16
(g20
S'?\xd9H\xf2\x9b\xe9\xa7?'
p2411
tp2412
Rp2413
sg47
g16
(g20
S'\x1a\xa0\x990K\x84\xba?'
p2414
tp2415
Rp2416
ssba(icore
City
p2417
(dp2418
g3
(dp2419
g5
I25344
sg6
I37965
sg7
F2.995975378787879
sg8
I88
sg9
I14768
sg10
F75930.0
ssg11
S'victoria'
p2420
sg13
(dp2421
g15
g16
(g20
S'\x8c\x04\x88jp\xf1\xef?'
p2422
tp2423
Rp2424
sg26
g16
(g20
S'\xf5\x7f\xaa\xa3\xa6U-@'
p2425
tp2426
Rp2427
sg30
I01
sg31
g16
(g20
S'\xf6\xcdM}\xb1\xcb\x89?'
p2428
tp2429
Rp2430
sg35
g16
(g20
S'\x0e\xa4\xe2V\x19\xb7y?'
p2431
tp2432
Rp2433
sg39
g16
(g20
S'nB5=\xfb\x8es?'
p2434
tp2435
Rp2436
sg43
g16
(g20
S'\xf2\xbc\x80H1\x98\xc8?'
p2437
tp2438
Rp2439
sg47
g16
(g20
S'\xfc.\xc1\xc5\xa5\xba\xa0?'
p2440
tp2441
Rp2442
ssba(icore
City
p2443
(dp2444
g3
(dp2445
g5
I939
sg6
I1409
sg7
F3.0010649627263044
sg8
I18
sg9
I312
sg10
F2818.0
ssg11
S'baghdad'
p2446
sg13
(dp2447
g15
g16
(g20
S'L\xf0\xfc\x83\x92\x93\xed?'
p2448
tp2449
Rp2450
sg26
g16
(g20
S'\xeb\xff4\x9a\x81\xa1;@'
p2451
tp2452
Rp2453
sg30
I01
sg31
g16
(g20
S',\xc8\x92\x881`\xc7?'
p2454
tp2455
Rp2456
sg35
g16
(g20
S'\xf9\x0bG\x13\x83)\xa0?'
p2457
tp2458
Rp2459
sg39
g16
(g20
S'\x8dx\xf4\xda\x87\x89\x9d?'
p2460
tp2461
Rp2462
sg43
g16
(g20
S'\xd5\x04\xbbo\xb0\xdc\xbf?'
p2463
tp2464
Rp2465
sg47
g16
(g20
S'\xd2+\xc1ml;\xd0?'
p2466
tp2467
Rp2468
ssba(icore
City
p2469
(dp2470
g3
(dp2471
g5
I301
sg6
I433
sg7
F2.877076411960133
sg8
I17
sg9
I232
sg10
F866.0
ssg11
S'bengaluru'
p2472
sg13
(dp2473
g15
g16
(g20
S'q\xeb\x0f\x95\xe7\xa0\xea?'
p2474
tp2475
Rp2476
sg26
g16
(g20
S'-\xdf\x1c+\xdd\xe35@'
p2477
tp2478
Rp2479
sg30
I01
sg31
g16
(g20
S'>\x0f\xb7\x80b\x9d\xd3?'
p2480
tp2481
Rp2482
sg35
g16
(g20
S'j\x1e\x83\xd3\x95L\xab?'
p2483
tp2484
Rp2485
sg39
g16
(g20
S'\x1a@9Q\xfd"\xaf?'
p2486
tp2487
Rp2488
sg43
g16
(g20
S"?Q'\xf8u\xf7\xc1?"
p2489
tp2490
Rp2491
sg47
g16
(g20
S'\xee\xa5\xff\xdf\x9bO\xd8?'
p2492
tp2493
Rp2494
ssba(icore
City
p2495
(dp2496
g3
(dp2497
g5
I4514
sg6
I6273
sg7
F2.7793531236154188
sg8
I69
sg9
I2803
sg10
F12546.0
ssg11
S'krakow'
p2498
sg13
(dp2499
g15
g16
(g20
S'\xc1\x12Q\xe3\x94h\xef?'
p2500
tp2501
Rp2502
sg26
g16
(g20
S'\xf3\xe9\x8f\xd3\x96\xdc:@'
p2503
tp2504
Rp2505
sg30
I01
sg31
g16
(g20
S'\x03#-\xbe\x8c\xdc\xb0?'
p2506
tp2507
Rp2508
sg35
g16
(g20
S'E\xb8T\x17\xfaO\x8e?'
p2509
tp2510
Rp2511
sg39
g16
(g20
S'\xb4\x07_\xb2\xbfp{?'
p2512
tp2513
Rp2514
sg43
g16
(g20
S'Z-.{\xc8\xf6\xc1?'
p2515
tp2516
Rp2517
sg47
g16
(g20
S"'\x1f@\xec\x94\xff\xba?"
p2518
tp2519
Rp2520
ssba(icore
City
p2521
(dp2522
g3
(dp2523
g5
I18913
sg6
I30101
sg7
F3.1831015703484375
sg8
I170
sg9
I17786
sg10
F60202.0
ssg11
S'shanghai'
p2524
sg13
(dp2525
g15
g16
(g20
S'\xa4\xd2\xbf\x06;h\xef?'
p2526
tp2527
Rp2528
sg26
g16
(g20
S'\x15F\xdf2n\x83R@'
p2529
tp2530
Rp2531
sg30
I01
sg31
g16
(g20
S'\xb2\x03-A\xe0g\xb3?'
p2532
tp2533
Rp2534
sg35
g16
(g20
S'\xf2\\\xff\x05#\x99}?'
p2535
tp2536
Rp2537
sg39
g16
(g20
S'\xd1f\xa5NcPg?'
p2538
tp2539
Rp2540
sg43
g16
(g20
S'\xfc\x0e\x0c\x94\xcf\x98\xb0?'
p2541
tp2542
Rp2543
sg47
g16
(g20
S'E\xe7\x84\xf0\x9e\x88\xbc?'
p2544
tp2545
Rp2546
ssba(icore
City
p2547
(dp2548
g3
(dp2549
g5
I7657
sg6
I14757
sg7
F3.8545122110487138
sg8
I62
sg9
I7277
sg10
F29514.0
ssg11
S'cartagena'
p2550
sg13
(dp2551
g15
g16
(g20
S'm\x88\x10~wy\xec?'
p2552
tp2553
Rp2554
sg26
g16
(g20
S'0\x1c\xc4\t\xc0?\\@'
p2555
tp2556
Rp2557
sg30
I01
sg31
g16
(g20
S'\xccw\xad\x94\x01\x9f\xc9?'
p2558
tp2559
Rp2560
sg35
g16
(g20
S'\xaf\xb4X\xf9G\xc8\x86?'
p2561
tp2562
Rp2563
sg39
g16
(g20
S'u\xe8v\rO4\x8d?'
p2564
tp2565
Rp2566
sg43
g16
(g20
S'\xfaQ\xa5\x02\xb9\xdd\xa8?'
p2567
tp2568
Rp2569
sg47
g16
(g20
S'\x1f\x7f\xc4\xa4\x84Q\xcd?'
p2570
tp2571
Rp2572
ssba(icore
City
p2573
(dp2574
g3
(dp2575
g5
I51847
sg6
I89474
sg7
F3.4514629583196714
sg8
I60
sg9
I37246
sg10
F178948.0
ssg11
S'copenhagen'
p2576
sg13
(dp2577
g15
g16
(g20
S'\x97\xd8\x164^)\xee?'
p2578
tp2579
Rp2580
sg26
g16
(g20
S'y,7D(fi@'
p2581
tp2582
Rp2583
sg30
I01
sg31
g16
(g20
S'\xf4\xc9h>\x15,\xbd?'
p2584
tp2585
Rp2586
sg35
g16
(g20
S'\x9b\x9d\xab\xdb\xe5\xd2q?'
p2587
tp2588
Rp2589
sg39
g16
(g20
S'\x13L\xe4\x1e\x1d\x85`?'
p2590
tp2591
Rp2592
sg43
g16
(g20
S'\xf6_#\x05)\x7f\xa0?'
p2593
tp2594
Rp2595
sg47
g16
(g20
S'\xb5yW\x11\x82I\xc1?'
p2596
tp2597
Rp2598
ssba(icore
City
p2599
(dp2600
g3
(dp2601
g5
I6478
sg6
I13661
sg7
F4.217659771534424
sg8
I3
sg9
I6468
sg10
F27322.0
ssg11
S'curitiba-brazil'
p2602
sg13
(dp2603
g15
g16
(g20
S"\xdc'%\xb7\xa3\x84\xef?"
p2604
tp2605
Rp2606
sg26
g16
(g20
S'\x83\xee\xe9\xc7\x7f\xdf@@'
p2607
tp2608
Rp2609
sg30
I01
sg31
g16
(g20
S'_\x1c\x97\xddo\xf4\xb0?'
p2610
tp2611
Rp2612
sg35
g16
(g20
S'\xc3\xd4eQ"K\x89?'
p2613
tp2614
Rp2615
sg39
g16
(g20
S"\xc0\x11$'\x18\xf6|?"
p2616
tp2617
Rp2618
sg43
g16
(g20
S'\xc4m\xeb\xde\x13\xfa\xbc?'
p2619
tp2620
Rp2621
sg47
g16
(g20
S'\xa3\xde\xbc\n\xae\xee\xbb?'
p2622
tp2623
Rp2624
ssba(icore
City
p2625
(dp2626
g3
(dp2627
g5
I953
sg6
I1461
sg7
F3.0661070304302203
sg8
I13
sg9
I833
sg10
F2922.0
ssg11
S'nairobi'
p2628
sg13
(dp2629
g15
g16
(g20
S'iGn\xfd\xd0\xcc\xeb?'
p2630
tp2631
Rp2632
sg26
g16
(g20
S'\x10\xaf\x1a\xf1\x81\xa4C@'
p2633
tp2634
Rp2635
sg30
I01
sg31
g16
(g20
S'\xfc\xc7q!\xa6u\xd0?'
p2636
tp2637
Rp2638
sg35
g16
(g20
S'8\xe4\\\xad\x93}\x9f?'
p2639
tp2640
Rp2641
sg39
g16
(g20
S'^|^g\x80\xf5\xb0?'
p2642
tp2643
Rp2644
sg43
g16
(g20
S'\x81h\x13j\xf8\r\xb9?'
p2645
tp2646
Rp2647
sg47
g16
(g20
S'\xc8i\x1b\xe1+\x1c\xd4?'
p2648
tp2649
Rp2650
ssba(icore
City
p2651
(dp2652
g3
(dp2653
g5
I20696
sg6
I33543
sg7
F3.241495941244685
sg8
I46
sg9
I20548
sg10
F67086.0
ssg11
S'milwaukee'
p2654
sg13
(dp2655
g15
g16
(g20
S'O\xab\x1aN??\xef?'
p2656
tp2657
Rp2658
sg26
g16
(g20
S'\x1a\xfc\\\x11(\x92R@'
p2659
tp2660
Rp2661
sg30
I01
sg31
g16
(g20
S'\xc6\x17zX\xa1p\xb2?'
p2662
tp2663
Rp2664
sg35
g16
(g20
S'@I\xf7,\xecS|?'
p2665
tp2666
Rp2667
sg39
g16
(g20
S'\xaci\xc6\xa4\xdcC\x84?'
p2668
tp2669
Rp2670
sg43
g16
(g20
S'v\xd9\xfb3\xc3\x9e\xb1?'
p2671
tp2672
Rp2673
sg47
g16
(g20
S'\x12.\xb6\x95\x1c\xb9\xb9?'
p2674
tp2675
Rp2676
ssba(icore
City
p2677
(dp2678
g3
(dp2679
g5
I71070
sg6
I111877
sg7
F3.1483607710707755
sg8
I48
sg9
I70924
sg10
F223754.0
ssg11
S'cleveland'
p2680
sg13
(dp2681
g15
g16
(g20
S'\x97\xeb\x85\xa6\x93"\xef?'
p2682
tp2683
Rp2684
sg26
g16
(g20
S'\xf2x\xc8\xa1+Id@'
p2685
tp2686
Rp2687
sg30
I01
sg31
g16
(g20
S'}\xa7\xe7\xa8\xb2V\xb3?'
p2688
tp2689
Rp2690
sg35
g16
(g20
S':\xc2\xe5\xac\xe0\x95n?'
p2691
tp2692
Rp2693
sg39
g16
(g20
S'\x16\xcc\xaa\xfa8ui?'
p2694
tp2695
Rp2696
sg43
g16
(g20
S'\x00\xdb91\xf3\xce\xa3?'
p2697
tp2698
Rp2699
sg47
g16
(g20
S'\x07\x15\xc1\xc3}\xb4\xb8?'
p2700
tp2701
Rp2702
ssba(icore
City
p2703
(dp2704
g3
(dp2705
g5
I44587
sg6
I64771
sg7
F2.905376006459282
sg8
I123
sg9
I35220
sg10
F129542.0
ssg11
S'seattle'
p2706
sg13
(dp2707
g15
g16
(g20
S'\xa2%9F\xd1\x1f\xef?'
p2708
tp2709
Rp2710
sg26
g16
(g20
S'\xcd3M,\xfaYb@'
p2711
tp2712
Rp2713
sg30
I01
sg31
g16
(g20
S'q\xaf\xb77\x9e\x0c\xb7?'
p2714
tp2715
Rp2716
sg35
g16
(g20
S's\xb5\xbd\xe4.Cs?'
p2717
tp2718
Rp2719
sg39
g16
(g20
S'\xf8.\xe2\x89\x92\xa3h?'
p2720
tp2721
Rp2722
sg43
g16
(g20
S'*x\xd7\x96\xd7g\xa4?'
p2723
tp2724
Rp2725
sg47
g16
(g20
S'dG\xd7\xc8\r5\xbe?'
p2726
tp2727
Rp2728
ssba(icore
City
p2729
(dp2730
g3
(dp2731
g5
I4625
sg6
I7017
sg7
F3.034378378378378
sg8
I70
sg9
I4131
sg10
F14034.0
ssg11
S'reykjavik'
p2732
sg13
(dp2733
g15
g16
(g20
S'\xc0\x1cM(\xb3\xbd\xef?'
p2734
tp2735
Rp2736
sg26
g16
(g20
S'\xb0\x9b9\x1c\xb6o0@'
p2737
tp2738
Rp2739
sg30
I01
sg31
g16
(g20
S'\xde\x0bv7\xb4S\xa4?'
p2740
tp2741
Rp2742
sg35
g16
(g20
S'IA\xf1\xaa\x96\x03\x8e?'
p2743
tp2744
Rp2745
sg39
g16
(g20
S'\x8f\xf3nh\x97\xec\x83?'
p2746
tp2747
Rp2748
sg43
g16
(g20
S'\xd0\xf6\x86\xff\xaa\xfe\xc6?'
p2749
tp2750
Rp2751
sg47
g16
(g20
S'\xb8%\x93\x87P\xe2\xb4?'
p2752
tp2753
Rp2754
ssba(icore
City
p2755
(dp2756
g3
(dp2757
g5
I8062
sg6
I11684
sg7
F2.898536343339122
sg8
I146
sg9
I5469
sg10
F23368.0
ssg11
S'port-au-prince'
p2758
sg13
(dp2759
g15
g16
(g20
S'\xa9N\x9d\xe6\xbd>\xee?'
p2760
tp2761
Rp2762
sg26
g16
(g20
S'\xe4\xed\t&\x08lS@'
p2763
tp2764
Rp2765
sg30
I01
sg31
g16
(g20
S')\xd8o;\x97\x11\xc1?'
p2766
tp2767
Rp2768
sg35
g16
(g20
S'\x81\xed\x1e7\xd4z\x86?'
p2769
tp2770
Rp2771
sg39
g16
(g20
S'k;_\x9f\x08\xef\x99?'
p2772
tp2773
Rp2774
sg43
g16
(g20
S'r/%\xb9\x98\x98\xb0?'
p2775
tp2776
Rp2777
sg47
g16
(g20
S'\x16LH\x15"\xac\xc5?'
p2778
tp2779
Rp2780
ssba(icore
City
p2781
(dp2782
g3
(dp2783
g5
I192
sg6
I181
sg7
F1.8854166666666667
sg8
I35
sg9
I77
sg10
F362.0
ssg11
S'sydney'
p2784
sg13
(dp2785
g15
g16
(g20
S'\xa2*C\xdd^\xa1\xec?'
p2786
tp2787
Rp2788
sg26
g16
(g20
S'?\xb7\xd7\x06)\x98&@'
p2789
tp2790
Rp2791
sg30
I01
sg31
g16
(g20
S'\xc2"\xef\xa4o\x84\xcb?'
p2792
tp2793
Rp2794
sg35
g16
(g20
S'\r\xbc\xb6\x8a!\x98\xb1?'
p2795
tp2796
Rp2797
sg39
g16
(g20
S'\xa6B\x0c\xfb>\x90\xa0?'
p2798
tp2799
Rp2800
sg43
g16
(g20
S'Zp\x06l-\xd5\xcc?'
p2801
tp2802
Rp2803
sg47
g16
(g20
S'\xbd.\xdf\xf2\xe8\x86\xd3?'
p2804
tp2805
Rp2806
ssba(icore
City
p2807
(dp2808
g3
(dp2809
g5
I20033
sg6
I38914
sg7
F3.8849897668846403
sg8
I103
sg9
I19073
sg10
F77828.0
ssg11
S'cairo'
p2810
sg13
(dp2811
g15
g16
(g20
S'k5\xec\xec\xab\xcb\xef?'
p2812
tp2813
Rp2814
sg26
g16
(g20
S'\x81\x9fg\x9eHWD@'
p2815
tp2816
Rp2817
sg30
I01
sg31
g16
(g20
S'\xd0 `\xa3\xb3\x98\xa4?'
p2818
tp2819
Rp2820
sg35
g16
(g20
S'\x05\xa7\x1dfM\xdd|?'
p2821
tp2822
Rp2823
sg39
g16
(g20
S';\x1cN1\x95\xb8n?'
p2824
tp2825
Rp2826
sg43
g16
(g20
S'4\xaa\xc6\xe9\xef\x1c\xb9?'
p2827
tp2828
Rp2829
sg47
g16
(g20
S'\x02\xde\xbb\x00\xdec\xb2?'
p2830
tp2831
Rp2832
ssba(icore
City
p2833
(dp2834
g3
(dp2835
g5
I15562
sg6
I22956
sg7
F2.9502634622799127
sg8
I29
sg9
I15451
sg10
F45912.0
ssg11
S'edinburgh'
p2836
sg13
(dp2837
g15
g16
(g20
S'\xee\x16A\xfc\r\xf2\xef?'
p2838
tp2839
Rp2840
sg26
g16
(g20
S')\xc0\xec \xd6Z*@'
p2841
tp2842
Rp2843
sg30
I01
sg31
g16
(g20
S'<\x00\xea\xd2\xe1\x11\x8f?'
p2844
tp2845
Rp2846
sg35
g16
(g20
S'\xc0\x12\x04\xf2\xa4g\x80?'
p2847
tp2848
Rp2849
sg39
g16
(g20
S'\x02"\xa9\xa5\x0eZj?'
p2850
tp2851
Rp2852
sg43
g16
(g20
S'\x16\xb8\xb2\xf8N\x86\xca?'
p2853
tp2854
Rp2855
sg47
g16
(g20
S'\x96\x98\xe4\xa3\x8e\xca\xa3?'
p2856
tp2857
Rp2858
ssba(icore
City
p2859
(dp2860
g3
(dp2861
g5
I41376
sg6
I72121
sg7
F3.486127223511214
sg8
I90
sg9
I40838
sg10
F144242.0
ssg11
S'san-francisco'
p2862
sg13
(dp2863
g15
g16
(g20
S'\x1b\x8c5\xad\xf1\x0f\xef?'
p2864
tp2865
Rp2866
sg26
g16
(g20
S'1\xa5\xe1\xde5\xd9`@'
p2867
tp2868
Rp2869
sg30
I01
sg31
g16
(g20
S'\xd1\xf0h\x85,\x1f\xb6?'
p2870
tp2871
Rp2872
sg35
g16
(g20
S'\xd7^%f"\x02t?'
p2873
tp2874
Rp2875
sg39
g16
(g20
S'\xc0dd/{\xe6x?'
p2876
tp2877
Rp2878
sg43
g16
(g20
S'3\xcb9\xeb22\xa6?'
p2879
tp2880
Rp2881
sg47
g16
(g20
S'iE9\xbb\x8e\xd8\xbc?'
p2882
tp2883
Rp2884
ssba(icore
City
p2885
(dp2886
g3
(dp2887
g5
I29703
sg6
I56012
sg7
F3.7714708951957716
sg8
I128
sg9
I27862
sg10
F112024.0
ssg11
S'sao-paulo'
p2888
sg13
(dp2889
g15
g16
(g20
S'\xa6\xef\xb9C\x1c\xb0\xef?'
p2890
tp2891
Rp2892
sg26
g16
(g20
S'\x00\x00\x00\x00\x00\x00\xf8\xff'
p2893
tp2894
Rp2895
sg30
I01
sg31
g16
(g20
S'\x00\x00\x00\x00\x00\x00\xf8\xff'
p2896
tp2897
Rp2898
sg35
g16
(g20
S'\xc2\xe5\xe3\xa5\x1e\xadw?'
p2899
tp2900
Rp2901
sg39
g16
(g20
S'&\x94g\xc1\xc9&\x80?'
p2902
tp2903
Rp2904
sg43
g16
(g20
S'\xc3\x85g_!\x06\xb1?'
p2905
tp2906
Rp2907
sg47
g16
(g20
S'VR\x14\x15\x8f@\xb6?'
p2908
tp2909
Rp2910
ssba(icore
City
p2911
(dp2912
g3
(dp2913
g5
I39
sg6
I28
sg7
F1.435897435897436
sg8
I13
sg9
I6
sg10
F56.0
ssg11
S'riyadh'
p2914
sg13
(dp2915
g15
g16
(g20
S'\x93\x93$]\x7f\x9d\xec?'
p2916
tp2917
Rp2918
sg26
g16
(g20
S'\xf7(\xaf\xcb\x86\xb0\x03@'
p2919
tp2920
Rp2921
sg30
I01
sg31
g16
(g20
S'\xe0\xc28\xcc\xb2\x16\xc3?'
p2922
tp2923
Rp2924
sg35
g16
(g20
S'lb\xcb\xcf\xb7E\xc3?'
p2925
tp2926
Rp2927
sg39
g16
(g20
S'S#!\x9b*5\xb2?'
p2928
tp2929
Rp2930
sg43
g16
(g20
S'4<\xe8\xb6\xd5N\xdc?'
p2931
tp2932
Rp2933
sg47
g16
(g20
S'\xb57++2\xc9\xd5?'
p2934
tp2935
Rp2936
ssba(icore
City
p2937
(dp2938
g3
(dp2939
g5
I61259
sg6
I82522
sg7
F2.69420003591309
sg8
I125
sg9
I60745
sg10
F165044.0
ssg11
S'atlanta'
p2940
sg13
(dp2941
g15
g16
(g20
S")R'0\x8a\xbf\xee?"
p2942
tp2943
Rp2944
sg26
g16
(g20
S' :\xc7:\xac\xcee@'
p2945
tp2946
Rp2947
sg30
I01
sg31
g16
(g20
S'\xb8\xcdo\xff\x9f\xb1\xb6?'
p2948
tp2949
Rp2950
sg35
g16
(g20
S'*\xa6\x0f\xc2 sp?'
p2951
tp2952
Rp2953
sg39
g16
(g20
S'\xe5:L\xa5\xa8\x1b_?'
p2954
tp2955
Rp2956
sg43
g16
(g20
S'\r\x0c\xd6\xee\xd5\xc9\xa2?'
p2957
tp2958
Rp2959
sg47
g16
(g20
S'\x89\x84\xa1\x83K\x04\xbc?'
p2960
tp2961
Rp2962
ssba(icore
City
p2963
(dp2964
g3
(dp2965
g5
I35797
sg6
I53282
sg7
F2.9768975053775457
sg8
I129
sg9
I35109
sg10
F106564.0
ssg11
S'newcastle'
p2966
sg13
(dp2967
g15
g16
(g20
S'\x00\xc3\xabx\x0e\xa9\xef?'
p2968
tp2969
Rp2970
sg26
g16
(g20
S'\xd1=\xfd\x85\xeb7Q@'
p2971
tp2972
Rp2973
sg30
I01
sg31
g16
(g20
S'+>\xc5F%\xa4\xa8?'
p2974
tp2975
Rp2976
sg35
g16
(g20
S'\x8d,\x8b\xd8c\x97u?'
p2977
tp2978
Rp2979
sg39
g16
(g20
S'\xea\xdd\xc2\xd1\xa7\xe5V?'
p2980
tp2981
Rp2982
sg43
g16
(g20
S'*\xaa\x7f>\x12\x84\xb2?'
p2983
tp2984
Rp2985
sg47
g16
(g20
S'S\x97C\xe8V\xa8\xb2?'
p2986
tp2987
Rp2988
ssba(icore
City
p2989
(dp2990
g3
(dp2991
g5
I70970
sg6
I112152
sg7
F3.160546709877413
sg8
I79
sg9
I70678
sg10
F224304.0
ssg11
S'pittsburgh'
p2992
sg13
(dp2993
g15
g16
(g20
S'\x88C\xb4\xe4\xe7\xe0\xef?'
p2994
tp2995
Rp2996
sg26
g16
(g20
S'\x1dE\xbe\xe3\xd8SL@'
p2997
tp2998
Rp2999
sg30
I01
sg31
g16
(g20
S'd,\xc1\x9e\xfe\x06\x9b?'
p3000
tp3001
Rp3002
sg35
g16
(g20
S'\xc9\x84\xa8\x9f\x03\xb8n?'
p3003
tp3004
Rp3005
sg39
g16
(g20
S'H2sZ\x05\x87a?'
p3006
tp3007
Rp3008
sg43
g16
(g20
S'\xd0\x01\xee:\xe7#\xb5?'
p3009
tp3010
Rp3011
sg47
g16
(g20
S'\xc8\xd2\xb3o\xe1?\xa7?'
p3012
tp3013
Rp3014
ssba(icore
City
p3015
(dp3016
g3
(dp3017
g5
I100096
sg6
I160713
sg7
F3.211177269820972
sg8
I344
sg9
I98565
sg10
F321426.0
ssg11
S'mpls-stpaul'
p3018
sg13
(dp3019
g15
g16
(g20
S'5\x08G6K\xd7\xef?'
p3020
tp3021
Rp3022
sg26
g16
(g20
S'\xdbn\x8c\xd9n\nV@'
p3023
tp3024
Rp3025
sg30
I01
sg31
g16
(g20
S'\n\xd0\r\xc2\xa8-\xa1?'
p3026
tp3027
Rp3028
sg35
g16
(g20
S'\xb1n\xec7\xc5\xdai?'
p3029
tp3030
Rp3031
sg39
g16
(g20
S'\xfax\x8al\xdbZX?'
p3032
tp3033
Rp3034
sg43
g16
(g20
S'\xb7\xf51\xb8`\xb0\xad?'
p3035
tp3036
Rp3037
sg47
g16
(g20
S'\xf3[\x9d\xad\xfb\xdd\xab?'
p3038
tp3039
Rp3040
ssba(icore
City
p3041
(dp3042
g3
(dp3043
g5
I38411
sg6
I66900
sg7
F3.4833771575850667
sg8
I114
sg9
I37826
sg10
F133800.0
ssg11
S'montreal'
p3044
sg13
(dp3045
g15
g16
(g20
S'l {\xd5\xda\xb8\xef?'
p3046
tp3047
Rp3048
sg26
g16
(g20
S'D\xd7d\xa4A\x16O@'
p3049
tp3050
Rp3051
sg30
I01
sg31
g16
(g20
S'\xc5\x84\x94\x19\x9fT\xa5?'
p3052
tp3053
Rp3054
sg35
g16
(g20
S'\x07Tf\x88\xa8\xdat?'
p3055
tp3056
Rp3057
sg39
g16
(g20
S'k\x10\x13\x9c\x13\xd3r?'
p3058
tp3059
Rp3060
sg43
g16
(g20
S'\xa3\xfbx\xaf\xea\xd4\xb3?'
p3061
tp3062
Rp3063
sg47
g16
(g20
S'\xe8l\xac\x92+\xd3\xb0?'
p3064
tp3065
Rp3066
ssba(icore
City
p3067
(dp3068
g3
(dp3069
g5
I51093
sg6
I77995
sg7
F3.053060106081068
sg8
I169
sg9
I39666
sg10
F155990.0
ssg11
S'houston'
p3070
sg13
(dp3071
g15
g16
(g20
S'\xc1M\x9br\x88\xe2\xef?'
p3072
tp3073
Rp3074
sg26
g16
(g20
S'iC\xedgN\xc6J@'
p3075
tp3076
Rp3077
sg30
I01
sg31
g16
(g20
S'1l\xaeH#\x05\x9f?'
p3078
tp3079
Rp3080
sg35
g16
(g20
S'G,\xde\xf5\xd6\x17r?'
p3081
tp3082
Rp3083
sg39
g16
(g20
S'\xf3/\xf1\xb4+\x19o?'
p3084
tp3085
Rp3086
sg43
g16
(g20
S'\xbd\xf1N\xc6xp\xb4?'
p3087
tp3088
Rp3089
sg47
g16
(g20
S'\x88\xd2\x90C\xa5S\xac?'
p3090
tp3091
Rp3092
ssba(icore
City
p3093
(dp3094
g3
(dp3095
g5
I44915
sg6
I98222
sg7
F4.373683624624291
sg8
I38
sg9
I43740
sg10
F196444.0
ssg11
S'athens'
p3096
sg13
(dp3097
g15
g16
(g20
S'p!>g}\xd6\xef?'
p3098
tp3099
Rp3100
sg26
g16
(g20
S'X\x85\xa2zg\xfeJ@'
p3101
tp3102
Rp3103
sg30
I01
sg31
g16
(g20
S'@\r\x91\xcb\xde\xe0\xa0?'
p3104
tp3105
Rp3106
sg35
g16
(g20
S'\xce\xe8"I\xbeKs?'
p3107
tp3108
Rp3109
sg39
g16
(g20
S'L\x8a\xb9\xc7\x01\xefl?'
p3110
tp3111
Rp3112
sg43
g16
(g20
S'\xe9"\x86V\xb5B\xb5?'
p3113
tp3114
Rp3115
sg47
g16
(g20
S'\x081\t\x80\xf8\n\xad?'
p3116
tp3117
Rp3118
ssba(icore
City
p3119
(dp3120
g3
(dp3121
g5
I83782
sg6
I125268
sg7
F2.9903320522307895
sg8
I209
sg9
I83009
sg10
F250536.0
ssg11
S'birmingham'
p3122
sg13
(dp3123
g15
g16
(g20
S'F\x8a\x84\xadl\xe4\xef?'
p3124
tp3125
Rp3126
sg26
g16
(g20
S'\xf2?0E\x82\x9dJ@'
p3127
tp3128
Rp3129
sg30
I01
sg31
g16
(g20
S'\x132\x00\xe5\x84\x07\x97?'
p3130
tp3131
Rp3132
sg35
g16
(g20
S'v\xd8M\xb6\xd8Gl?'
p3133
tp3134
Rp3135
sg39
g16
(g20
S'\x9a_\x14j1KO?'
p3136
tp3137
Rp3138
sg43
g16
(g20
S'\xc9\x17\xd1\xad\x9b\xd8\xb6?'
p3139
tp3140
Rp3141
sg47
g16
(g20
S'\xdc\x97\xb3&V\xce\xa3?'
p3142
tp3143
Rp3144
ssba(icore
City
p3145
(dp3146
g3
(dp3147
g5
I43821
sg6
I71003
sg7
F3.24059241003172
sg8
I217
sg9
I42990
sg10
F142006.0
ssg11
S'lisbon'
p3148
sg13
(dp3149
g15
g16
(g20
S'Gu. \x94\xd9\xef?'
p3150
tp3151
Rp3152
sg26
g16
(g20
S'\x1f\x11\x18A\xee\xdeH@'
p3153
tp3154
Rp3155
sg30
I01
sg31
g16
(g20
S'\xc3#\x1fNz\x8f\x9f?'
p3156
tp3157
Rp3158
sg35
g16
(g20
S'i7W\xfe\x00\x8as?'
p3159
tp3160
Rp3161
sg39
g16
(g20
S'V\xc7\xb6b6rh?'
p3162
tp3163
Rp3164
sg43
g16
(g20
S'^\xcb\xfe\t\xc5\xf7\xb6?'
p3165
tp3166
Rp3167
sg47
g16
(g20
S'>*v\x19\r9\xab?'
p3168
tp3169
Rp3170
ssba(icore
City
p3171
(dp3172
g3
(dp3173
g5
I16821
sg6
I30491
sg7
F3.625349265798704
sg8
I84
sg9
I14095
sg10
F60982.0
ssg11
S'mexico-city'
p3174
sg13
(dp3175
g15
g16
(g20
S'\x16\xdef\x0b;\x83\xef?'
p3176
tp3177
Rp3178
sg26
g16
(g20
S'1\xa1\x02\n!\x05N@'
p3179
tp3180
Rp3181
sg30
I01
sg31
g16
(g20
S'Ef\xd7\x9f[\xe2\xb0?'
p3182
tp3183
Rp3184
sg35
g16
(g20
S'\xd0\x81\xeb\xef\x06l\x7f?'
p3185
tp3186
Rp3187
sg39
g16
(g20
S'\xbf\xc7Nm\xfddz?'
p3188
tp3189
Rp3190
sg43
g16
(g20
S'\xe0\xb58\x95\xec\x8e\xb3?'
p3191
tp3192
Rp3193
sg47
g16
(g20
S'|Z\x13\xd6\x8d\xb4\xb9?'
p3194
tp3195
Rp3196
ssba(icore
City
p3197
(dp3198
g3
(dp3199
g5
I31203
sg6
I48546
sg7
F3.111623882319008
sg8
I44
sg9
I30990
sg10
F97092.0
ssg11
S'toulouse'
p3200
sg13
(dp3201
g15
g16
(g20
S'u \x07\xa7q\xd7\xef?'
p3202
tp3203
Rp3204
sg26
g16
(g20
S'\xcf\xf1\xe1\xb0\xe6\x0eE@'
p3205
tp3206
Rp3207
sg30
I01
sg31
g16
(g20
S'>\x90\xdas\x7fZ\xa0?'
p3208
tp3209
Rp3210
sg35
g16
(g20
S'\xf5\x0b\x84\x8e\xd7&w?'
p3211
tp3212
Rp3213
sg39
g16
(g20
S'G+\xd2\x1f>\x80e?'
p3214
tp3215
Rp3216
sg43
g16
(g20
S'\xa3e\x15\xa8\x8e\xe8\xb9?'
p3217
tp3218
Rp3219
sg47
g16
(g20
S'\xa1\x83\x0e\x81[\x98\xac?'
p3220
tp3221
Rp3222
ssba(icore
City
p3223
(dp3224
g3
(dp3225
g5
I58767
sg6
I87678
sg7
F2.9839195466843638
sg8
I132
sg9
I58210
sg10
F175356.0
ssg11
S'manchester'
p3226
sg13
(dp3227
g15
g16
(g20
S'\x13\xbaX\x05\xe7\xa5\xef?'
p3228
tp3229
Rp3230
sg26
g16
(g20
S't\x8b\x07>\xcfcW@'
p3231
tp3232
Rp3233
sg30
I01
sg31
g16
(g20
S'\xec\x8b\xa6\x91\t\xf2\xa8?'
p3234
tp3235
Rp3236
sg35
g16
(g20
S'\xc4\xab\x85t}\xdap?'
p3237
tp3238
Rp3239
sg39
g16
(g20
S'L\xda\xd8\xc6P\xd6]?'
p3240
tp3241
Rp3242
sg43
g16
(g20
S'9`\x8bH_\x96\xad?'
p3243
tp3244
Rp3245
sg47
g16
(g20
S'\x14\xab\x8f\x1fM:\xb2?'
p3246
tp3247
Rp3248
ssba(icore
City
p3249
(dp3250
g3
(dp3251
g5
I6390
sg6
I8983
sg7
F2.811580594679186
sg8
I26
sg9
I6111
sg10
F17966.0
ssg11
S'honolulu'
p3252
sg13
(dp3253
g15
g16
(g20
S'\xef\xbc\xfd#\xae\xf6\xee?'
p3254
tp3255
Rp3256
sg26
g16
(g20
S'\x00\x00\x00\x00\x00\x00\xf8\xff'
p3257
tp3258
Rp3259
sg30
I01
sg31
g16
(g20
S'\x00\x00\x00\x00\x00\x00\xf8\xff'
p3260
tp3261
Rp3262
sg35
g16
(g20
S'o\xe3\xe5\xe1_\\\x89?'
p3263
tp3264
Rp3265
sg39
g16
(g20
S'\x86\xda\xd4J1\x9b\x9b?'
p3266
tp3267
Rp3268
sg43
g16
(g20
S':1\xe3;\xd8W\xb6?'
p3269
tp3270
Rp3271
sg47
g16
(g20
S'\xa0\xc0\x03\x146)\xc2?'
p3272
tp3273
Rp3274
ssba(icore
City
p3275
(dp3276
g3
(dp3277
g5
I73683
sg6
I108829
sg7
F2.953978529647273
sg8
I255
sg9
I72231
sg10
F217658.0
ssg11
S'st-louis'
p3278
sg13
(dp3279
g15
g16
(g20
S'\xbcUs\xcb\xba{\xef?'
p3280
tp3281
Rp3282
sg26
g16
(g20
S'\x90\x0bE\x88J\xbb`@'
p3283
tp3284
Rp3285
sg30
I01
sg31
g16
(g20
S'\x97\xe9\xb6\xcd\xa6:\xaf?'
p3286
tp3287
Rp3288
sg35
g16
(g20
S'-\x8bp\x05\xfa\x12n?'
p3289
tp3290
Rp3291
sg39
g16
(g20
S'#\x81\x0f\xa9A\xafc?'
p3292
tp3293
Rp3294
sg43
g16
(g20
S'6+\xe5(-\x8e\xa6?'
p3295
tp3296
Rp3297
sg47
g16
(g20
S'Z\xc3e\xe9bU\xb5?'
p3298
tp3299
Rp3300
ssba(icore
City
p3301
(dp3302
g3
(dp3303
g5
I8
sg6
I7
sg7
F1.75
sg8
I2
sg9
I6
sg10
F14.0
ssg11
S'campo-grande'
p3304
sg13
(dp3305
g30
I00
ssba(icore
City
p3306
(dp3307
g3
(dp3308
g5
I94901
sg6
I166747
sg7
F3.514125246309312
sg8
I75
sg9
I94607
sg10
F333494.0
ssg11
S'karlsruhe'
p3309
sg13
(dp3310
g15
g16
(g20
S'\x8b\xb1\xf2\xf2\xce\xe1\xef?'
p3311
tp3312
Rp3313
sg26
g16
(g20
S"J\x0ey'\xbb\x08Q@"
p3314
tp3315
Rp3316
sg30
I01
sg31
g16
(g20
S'\x0f\xc8\xb9\xe4ue\x9b?'
p3317
tp3318
Rp3319
sg35
g16
(g20
S'\xae$\xf0\xd9e\x90j?'
p3320
tp3321
Rp3322
sg39
g16
(g20
S'\xae\xd0\xebk\xe1\xa5G?'
p3323
tp3324
Rp3325
sg43
g16
(g20
S'\xa7r\x99g\xb8\n\xb2?'
p3326
tp3327
Rp3328
sg47
g16
(g20
S'\xa6\x9cQ\x8b\xc4\x8e\xa7?'
p3329
tp3330
Rp3331
ssba(icore
City
p3332
(dp3333
g3
(dp3334
g5
I22417
sg6
I31670
sg7
F2.825534192800107
sg8
I65
sg9
I21926
sg10
F63340.0
ssg11
S'charlotte'
p3335
sg13
(dp3336
g15
g16
(g20
S'!;\xfa\n\xfb\x9d\xee?'
p3337
tp3338
Rp3339
sg26
g16
(g20
S'\x0e\xc6\x0c\x0f9\x8a]@'
p3340
tp3341
Rp3342
sg30
I01
sg31
g16
(g20
S'{36\t_\xf5\xbb?'
p3343
tp3344
Rp3345
sg35
g16
(g20
S'\x01\xdd\x08\x05\x1c\x18{?'
p3346
tp3347
Rp3348
sg39
g16
(g20
S'\x86U\xd3hX\x92l?'
p3349
tp3350
Rp3351
sg43
g16
(g20
S'\xbd\\Q\xda\xdc{\xa8?'
p3352
tp3353
Rp3354
sg47
g16
(g20
S'\xe4\xa8\x9a\xb0\xb1\xb4\xc1?'
p3355
tp3356
Rp3357
ssba(icore
City
p3358
(dp3359
g3
(dp3360
g5
I9657
sg6
I15647
sg7
F3.2405508957233096
sg8
I10
sg9
I9617
sg10
F31294.0
ssg11
S'nazareth'
p3361
sg13
(dp3362
g15
g16
(g20
S'm W\xc7\xf9O\xef?'
p3363
tp3364
Rp3365
sg26
g16
(g20
S'\xc6\xc4\x10\xca\x80\xd5D@'
p3366
tp3367
Rp3368
sg30
I01
sg31
g16
(g20
S'\x10\x88w\xcauf\xb0?'
p3369
tp3370
Rp3371
sg35
g16
(g20
S'\x8c\xe7\x08d\xe8\xbe\x84?'
p3372
tp3373
Rp3374
sg39
g16
(g20
S'+\xf1\xa4r\xcf\xd6s?'
p3375
tp3376
Rp3377
sg43
g16
(g20
S'\xef\xf1mq\xff7\xbb?'
p3378
tp3379
Rp3380
sg47
g16
(g20
S'K\xb8\x91\x1b\xd3c\xb8?'
p3381
tp3382
Rp3383
ssba(icore
City
p3384
(dp3385
g3
(dp3386
g5
I5349
sg6
I7721
sg7
F2.8868947466816226
sg8
I20
sg9
I3619
sg10
F15442.0
ssg11
S'evansville'
p3387
sg13
(dp3388
g15
g16
(g20
S'\xe6;\xf9\xcc\x88u\xee?'
p3389
tp3390
Rp3391
sg26
g16
(g20
S'\xa7\xb5T\xdb\xc0-O@'
p3392
tp3393
Rp3394
sg30
I01
sg31
g16
(g20
S'4\xf6\xfd\xe1\xa2\x9f\xc1?'
p3395
tp3396
Rp3397
sg35
g16
(g20
S'\x88\xec\xb1`\xd4\x84\x8b?'
p3398
tp3399
Rp3400
sg39
g16
(g20
S'-G\xe82\x93\xd0\x82?'
p3401
tp3402
Rp3403
sg43
g16
(g20
S'\x95&\x8b\x9d\xad\x97\xb2?'
p3404
tp3405
Rp3406
sg47
g16
(g20
S'J\x8d\xc4\xed\x83\xae\xc7?'
p3407
tp3408
Rp3409
ssba(icore
City
p3410
(dp3411
g3
(dp3412
g5
I240932
sg6
I444568
sg7
F3.69040227118025
sg8
I160
sg9
I240290
sg10
F889136.0
ssg11
S'frankfurt'
p3413
sg13
(dp3414
g15
g16
(g20
S'\x92p\xe4\xff7\xc3\xef?'
p3415
tp3416
Rp3417
sg26
g16
(g20
S'\xc6\xb7\x16\xaa\xd6\xd7d@'
p3418
tp3419
Rp3420
sg30
I01
sg31
g16
(g20
S']\xfe)\x13\nu\xa3?'
p3421
tp3422
Rp3423
sg35
g16
(g20
S'Qy\x8c(\xf0\xa9`?'
p3424
tp3425
Rp3426
sg39
g16
(g20
S'\xbb\x82\x89(d\xd68?'
p3427
tp3428
Rp3429
sg43
g16
(g20
S'\x9d\xc9e\x83c\xca\xa2?'
p3430
tp3431
Rp3432
sg47
g16
(g20
S'\x8f#\xcc\x9f\xcf`\xac?'
p3433
tp3434
Rp3435
ssba(icore
City
p3436
(dp3437
g3
(dp3438
g5
I3339
sg6
I4626
sg7
F2.77088948787062
sg8
I17
sg9
I1730
sg10
F9252.0
ssg11
S'auckland'
p3439
sg13
(dp3440
g15
g16
(g20
S'\xdbh\xa8\xef\xb3s\xee?'
p3441
tp3442
Rp3443
sg26
g16
(g20
S'\rD\xf0\xb8Z\xd1E@'
p3444
tp3445
Rp3446
sg30
I01
sg31
g16
(g20
S'z;7\xa5\xfc\x83\xc0?'
p3447
tp3448
Rp3449
sg35
g16
(g20
S'\xbdc/$\x15s\x91?'
p3450
tp3451
Rp3452
sg39
g16
(g20
S'\t=%q<\xc4\x8b?'
p3453
tp3454
Rp3455
sg43
g16
(g20
S'\xdcz\xdd\xd58\x03\xb9?'
p3456
tp3457
Rp3458
sg47
g16
(g20
S'n\xab\xf5\x11\xfdR\xc6?'
p3459
tp3460
Rp3461
ssba(icore
City
p3462
(dp3463
g3
(dp3464
g5
I37263
sg6
I56651
sg7
F3.040603279392427
sg8
I82
sg9
I33337
sg10
F113302.0
ssg11
S'new-orleans'
p3465
sg13
(dp3466
g15
g16
(g20
S'\xa2q3\xa4*\x96\xef?'
p3467
tp3468
Rp3469
sg26
g16
(g20
S'5\\\x7f\x8f{\x1dV@'
p3470
tp3471
Rp3472
sg30
I01
sg31
g16
(g20
S'r7B\xa9\xda\xe6\xae?'
p3473
tp3474
Rp3475
sg35
g16
(g20
S'\xb1\xc2\x99\xf8\xe6!u?'
p3476
tp3477
Rp3478
sg39
g16
(g20
S'+u\xe68b\xc0\x81?'
p3479
tp3480
Rp3481
sg43
g16
(g20
S'\xf5-\xa0\x8b\x0eN\xad?'
p3482
tp3483
Rp3484
sg47
g16
(g20
S'\x1d\x03\x11\x91o\x13\xb7?'
p3485
tp3486
Rp3487
ssba(icore
City
p3488
(dp3489
g3
(dp3490
g5
I31910
sg6
I45543
sg7
F2.8544656847383267
sg8
I102
sg9
I31423
sg10
F91086.0
ssg11
S'cincinnati'
p3491
sg13
(dp3492
g15
g16
(g20
S'%\x98\x8b\xb6Y\xbc\xef?'
p3493
tp3494
Rp3495
sg26
g16
(g20
S'\tqw\xccoFL@'
p3496
tp3497
Rp3498
sg30
I01
sg31
g16
(g20
S'\xd8\x85|0\xa3\xaa\xa5?'
p3499
tp3500
Rp3501
sg35
g16
(g20
S'\xd3/\xd2\x98j\xe0v?'
p3502
tp3503
Rp3504
sg39
g16
(g20
S'\x98T\xbe\x16 Tu?'
p3505
tp3506
Rp3507
sg43
g16
(g20
S'+u\x05e\xb0\x0b\xb5?'
p3508
tp3509
Rp3510
sg47
g16
(g20
S'\xbetD\xcdYd\xb1?'
p3511
tp3512
Rp3513
ssba(icore
City
p3514
(dp3515
g3
(dp3516
g5
I15936
sg6
I27893
sg7
F3.5006275100401605
sg8
I86
sg9
I7815
sg10
F55786.0
ssg11
S'singapore'
p3517
sg13
(dp3518
g15
g16
(g20
S'\xeb\xa2=:\xc4!\xef?'
p3519
tp3520
Rp3521
sg26
g16
(g20
S'\xc0\xb3\x13W\xf9uQ@'
p3522
tp3523
Rp3524
sg30
I01
sg31
g16
(g20
S'\xa8U\xbd+\xb1J\xb4?'
p3525
tp3526
Rp3527
sg35
g16
(g20
S'\xc6uB\x03\xff \x80?'
p3528
tp3529
Rp3530
sg39
g16
(g20
S'E\x12Kc2\xb1}?'
p3531
tp3532
Rp3533
sg43
g16
(g20
S'\x96SZ\xd1\x13\xb6\xb2?'
p3534
tp3535
Rp3536
sg47
g16
(g20
S'\x8dXe\xe0j\x95\xbb?'
p3537
tp3538
Rp3539
ssba(icore
City
p3540
(dp3541
g3
(dp3542
g5
I60189
sg6
I105325
sg7
F3.4998089351874926
sg8
I147
sg9
I59483
sg10
F210650.0
ssg11
S'madrid'
p3543
sg13
(dp3544
g15
g16
(g20
S'\x07W\xbd\xd5\x87\xd6\xef?'
p3545
tp3546
Rp3547
sg26
g16
(g20
S'\x80\xfc\xdbH\xa3HM@'
p3548
tp3549
Rp3550
sg30
I01
sg31
g16
(g20
S'\x1f+\xf4\xee\t\xcb\x9e?'
p3551
tp3552
Rp3553
sg35
g16
(g20
S'\x9bjM\x08\xdc\xacp?'
p3554
tp3555
Rp3556
sg39
g16
(g20
S'.\xe1l\xecE\x89]?'
p3557
tp3558
Rp3559
sg43
g16
(g20
S'\xd6\xedRr^\x1e\xb5?'
p3560
tp3561
Rp3562
sg47
g16
(g20
S'1T\xf8\x91cD\xa9?'
p3563
tp3564
Rp3565
ssba(icore
City
p3566
(dp3567
g3
(dp3568
g5
I25341
sg6
I41696
sg7
F3.2907935756284283
sg8
I149
sg9
I24807
sg10
F83392.0
ssg11
S'warsaw'
p3569
sg13
(dp3570
g15
g16
(g20
S'\xd5\xf4\x9e\xcc%\xed\xef?'
p3571
tp3572
Rp3573
sg26
g16
(g20
S'\xac\x87\x85G\xe5\x968@'
p3574
tp3575
Rp3576
sg30
I01
sg31
g16
(g20
S'*\x8a\xaa\x95\xe0\x9f\x95?'
p3577
tp3578
Rp3579
sg35
g16
(g20
S'\xcbR\x02?\x13\xb4y?'
p3580
tp3581
Rp3582
sg39
g16
(g20
S'o\xb3q\x1b\xb9\xa0c?'
p3583
tp3584
Rp3585
sg43
g16
(g20
S'\xc1I*1\xc0\x83\xc1?'
p3586
tp3587
Rp3588
sg47
g16
(g20
S'\x8d\xedtB\t{\xa7?'
p3589
tp3590
Rp3591
ssba(icore
City
p3592
(dp3593
g3
(dp3594
g5
I30869
sg6
I50889
sg7
F3.297094172146814
sg8
I49
sg9
I30656
sg10
F101778.0
ssg11
S'porto'
p3595
sg13
(dp3596
g15
g16
(g20
S'\xda\xc4e\x18\xd4\xed\xef?'
p3597
tp3598
Rp3599
sg26
g16
(g20
S'\xfa\xdd\x14\xd5]\xe0;@'
p3600
tp3601
Rp3602
sg30
I01
sg31
g16
(g20
S'^\xbb\x94 \xb4\xc9\x95?'
p3603
tp3604
Rp3605
sg35
g16
(g20
S'E\x9d\x9d\xba$Jw?'
p3606
tp3607
Rp3608
sg39
g16
(g20
S'*\x0f\xf1\xc4S``?'
p3609
tp3610
Rp3611
sg43
g16
(g20
S'\x03\xa8~\x84\x1a?\xc0?'
p3612
tp3613
Rp3614
sg47
g16
(g20
S'`\x9bH\xf6\xae\xef\xa6?'
p3615
tp3616
Rp3617
ssba(icore
City
p3618
(dp3619
g3
(dp3620
g5
I70581
sg6
I120790
sg7
F3.4227341635851007
sg8
I386
sg9
I68892
sg10
F241580.0
ssg11
S'denver-boulder'
p3621
sg13
(dp3622
g15
g16
(g20
S'\xb2\xa0t\x17}\xa4\xef?'
p3623
tp3624
Rp3625
sg26
g16
(g20
S'\x00\x00\x00\x00\x00\x00\xf8\xff'
p3626
tp3627
Rp3628
sg30
I01
sg31
g16
(g20
S'\x00\x00\x00\x00\x00\x00\xf8\xff'
p3629
tp3630
Rp3631
sg35
g16
(g20
S'\xd5\xaco\x94O\xbcn?'
p3632
tp3633
Rp3634
sg39
g16
(g20
S'1\xa8\xe0\xe9\xcb^i?'
p3635
tp3636
Rp3637
sg43
g16
(g20
S'~\x07\xcc\xff\xa2\xec\xa7?'
p3638
tp3639
Rp3640
sg47
g16
(g20
S'\xad\xa6\x1b\xe3\x1f\x8e\xb4?'
p3641
tp3642
Rp3643
ssba(icore
City
p3644
(dp3645
g3
(dp3646
g5
I21760
sg6
I33102
sg7
F3.0424632352941177
sg8
I54
sg9
I21555
sg10
F66204.0
ssg11
S'marseille'
p3647
sg13
(dp3648
g15
g16
(g20
S'\x10"\'\xd8V\xed\xef?'
p3649
tp3650
Rp3651
sg26
g16
(g20
S'\xeees\xb2#\x904@'
p3652
tp3653
Rp3654
sg30
I01
sg31
g16
(g20
S'\xcfNX\t\t\xd0\x93?'
p3655
tp3656
Rp3657
sg35
g16
(g20
S'\xf1\na\xb8\xc1\xbd{?'
p3658
tp3659
Rp3660
sg39
g16
(g20
S'{\x97\xb8\xdb\x18SZ?'
p3661
tp3662
Rp3663
sg43
g16
(g20
S'\x96\x98]lJ\x17\xc4?'
p3664
tp3665
Rp3666
sg47
g16
(g20
S',\xa9l\x89\xad\x17\xa6?'
p3667
tp3668
Rp3669
ssba(icore
City
p3670
(dp3671
g3
(dp3672
g5
I11948
sg6
I18869
sg7
F3.158520254435889
sg8
I24
sg9
I11861
sg10
F37738.0
ssg11
S'brno'
p3673
sg13
(dp3674
g15
g16
(g20
S'\xd8\xd5ST\x06\x90\xef?'
p3675
tp3676
Rp3677
sg26
g16
(g20
S'\x99\xd2\xb31\xe8\xefD@'
p3678
tp3679
Rp3680
sg30
I01
sg31
g16
(g20
S'vW\x8a\xa8k\xf6\xac?'
p3681
tp3682
Rp3683
sg35
g16
(g20
S'qH\x1f\xd5\xe1\xa9\x82?'
p3684
tp3685
Rp3686
sg39
g16
(g20
S'\xc3\x9f\xc2\xb4\x06\xe5g?'
p3687
tp3688
Rp3689
sg43
g16
(g20
S'\xfc<\xee/H\x85\xba?'
p3690
tp3691
Rp3692
sg47
g16
(g20
S'=L\xbe\x8a\x07\x85\xb6?'
p3693
tp3694
Rp3695
ssba(icore
City
p3696
(dp3697
g3
(dp3698
g5
I192036
sg6
I394429
sg7
F4.107865191943177
sg8
I402
sg9
I186843
sg10
F788858.0
ssg11
S'osaka'
p3699
sg13
(dp3700
g15
g16
(g20
S'k\xe9\xc0\xda\xef\xd3\xef?'
p3701
tp3702
Rp3703
sg26
g16
(g20
S'P@\xc5bj\xba]@'
p3704
tp3705
Rp3706
sg30
I01
sg31
g16
(g20
S'i\xb7\xae\xe8\xf6\xa9\x9f?'
p3707
tp3708
Rp3709
sg35
g16
(g20
S'j\x83n\xb2P\xacb?'
p3710
tp3711
Rp3712
sg39
g16
(g20
S'\xef\xfe\x1e/:_P?'
p3713
tp3714
Rp3715
sg43
g16
(g20
S'a\xbd@"\xae\xc8\xa8?'
p3716
tp3717
Rp3718
sg47
g16
(g20
S"\x82^\xdda'\x1c\xa8?"
p3719
tp3720
Rp3721
ssba(icore
City
p3722
(dp3723
g3
(dp3724
g5
I4941
sg6
I6024
sg7
F2.438372799028537
sg8
I30
sg9
I3446
sg10
F12048.0
ssg11
S'humboldt-ca'
p3725
sg13
(dp3726
g15
g16
(g20
S'7\xd2\xcc7\x01n\xed?'
p3727
tp3728
Rp3729
sg26
g16
(g20
S'd\xf63>\xf6\x12R@'
p3730
tp3731
Rp3732
sg30
I01
sg31
g16
(g20
S'}b\xdd\xb7+u\xc5?'
p3733
tp3734
Rp3735
sg35
g16
(g20
S'\x7f\xdcK~\x9a\x87\x8c?'
p3736
tp3737
Rp3738
sg39
g16
(g20
S'/\x19L\xa2\xdd\xc0\x8f?'
p3739
tp3740
Rp3741
sg43
g16
(g20
S'{\xdf\x0e}\\\x94\xb1?'
p3742
tp3743
Rp3744
sg47
g16
(g20
S'5y\xe6V^\xf7\xc9?'
p3745
tp3746
Rp3747
ssba(icore
City
p3748
(dp3749
g3
(dp3750
g5
I1912
sg6
I2947
sg7
F3.0826359832635983
sg8
I25
sg9
I1821
sg10
F5894.0
ssg11
S'mumbai'
p3751
sg13
(dp3752
g15
g16
(g20
S'\xca\x98\xc4\xbe\x8b\xf6\xed?'
p3753
tp3754
Rp3755
sg26
g16
(g20
S'\xa9\xdbw_\xfbeB@'
p3756
tp3757
Rp3758
sg30
I01
sg31
g16
(g20
S'\x08L+I:\xc3\xc3?'
p3759
tp3760
Rp3761
sg35
g16
(g20
S'd\xbbFG0\xeb\x96?'
p3762
tp3763
Rp3764
sg39
g16
(g20
S'\x8c\xdd\x8d\x9c\xc5\xf2\x95?'
p3765
tp3766
Rp3767
sg43
g16
(g20
S'\x06\xcbq$\x02\xe3\xbb?'
p3768
tp3769
Rp3770
sg47
g16
(g20
S'\x07E\xea\xc5\x96L\xca?'
p3771
tp3772
Rp3773
ssba(icore
City
p3774
(dp3775
g3
(dp3776
g5
I8521
sg6
I15840
sg7
F3.7178734890271095
sg8
I27
sg9
I5504
sg10
F31680.0
ssg11
S'santo-domingo'
p3777
sg13
(dp3778
g15
g16
(g20
S'\xbc\x04\xc1{\xbe\xcb\xee?'
p3779
tp3780
Rp3781
sg26
g16
(g20
S'\x91\xf9\x1a\xe01\x03P@'
p3782
tp3783
Rp3784
sg30
I01
sg31
g16
(g20
S'R\xc6\xdd%g5\xbb?'
p3785
tp3786
Rp3787
sg35
g16
(g20
S'\xfc\xad\xa2\\I\xf4\x85?'
p3788
tp3789
Rp3790
sg39
g16
(g20
S'k\x04r\xaeiM\x83?'
p3791
tp3792
Rp3793
sg43
g16
(g20
S'\x98\xdd\x9d\xf27\x06\xb3?'
p3794
tp3795
Rp3796
sg47
g16
(g20
S'me\xdch\xd4v\xc2?'
p3797
tp3798
Rp3799
ssba(icore
City
p3800
(dp3801
g3
(dp3802
g5
I63311
sg6
I107425
sg7
F3.3935650992718487
sg8
I54
sg9
I62951
sg10
F214850.0
ssg11
S'manila'
p3803
sg13
(dp3804
g15
g16
(g20
S'\xaa\xf7=t\x0c\x93\xef?'
p3805
tp3806
Rp3807
sg26
g16
(g20
S'eM\xa8\xd5\x94\xe6Z@'
p3808
tp3809
Rp3810
sg30
I01
sg31
g16
(g20
S'\xc7p0\xecot\xab?'
p3811
tp3812
Rp3813
sg35
g16
(g20
S'\xb6x\xfe\x9dS;p?'
p3814
tp3815
Rp3816
sg39
g16
(g20
S'U\xff<J0\xcbh?'
p3817
tp3818
Rp3819
sg43
g16
(g20
S'V\xe5P\xf4\xcb\xb9\xaa?'
p3820
tp3821
Rp3822
sg47
g16
(g20
S'\xa8\x8e\xf1o]o\xb3?'
p3823
tp3824
Rp3825
ssba.